/Users/eirikr/Documents/GitHub/steinmarder/src/apple_re/results/typed_cpu_probe_suite_20260401/cpu_bins/sm_apple_cpu_latency_O0:
(__TEXT,__text) section
_main:
1000005e8:	ff 03 02 d1	sub	sp, sp, #0x80
1000005ec:	fd 7b 07 a9	stp	x29, x30, [sp, #0x70]
1000005f0:	fd c3 01 91	add	x29, sp, #0x70
1000005f4:	bf c3 1f b8	stur	wzr, [x29, #-0x4]
1000005f8:	a0 83 1f b8	stur	w0, [x29, #-0x8]
1000005fc:	a1 03 1f f8	stur	x1, [x29, #-0x10]
100000600:	08 48 88 d2	mov	x8, #0x4240
100000604:	e8 01 a0 f2	movk	x8, #0xf, lsl #16
100000608:	a8 83 1e f8	stur	x8, [x29, #-0x18]
10000060c:	bf 73 1e 38	sturb	wzr, [x29, #-0x19]
100000610:	bf 83 1d f8	stur	xzr, [x29, #-0x28]
100000614:	28 00 80 52	mov	w8, #0x1
100000618:	a8 43 1d b8	stur	w8, [x29, #-0x2c]
10000061c:	01 00 00 14	b	0x100000620
100000620:	a8 43 5d b8	ldur	w8, [x29, #-0x2c]
100000624:	a9 83 5f b8	ldur	w9, [x29, #-0x8]
100000628:	08 01 09 6b	subs	w8, w8, w9
10000062c:	8a 0f 00 54	b.ge	0x10000081c
100000630:	01 00 00 14	b	0x100000634
100000634:	a8 03 5f f8	ldur	x8, [x29, #-0x10]
100000638:	a9 43 9d b8	ldursw	x9, [x29, #-0x2c]
10000063c:	00 79 69 f8	ldr	x0, [x8, x9, lsl #3]
100000640:	01 00 00 d0	adrp	x1, 2 ; 0x100002000
100000644:	21 e0 10 91	add	x1, x1, #0x438 ; literal pool for: "--iters"
100000648:	5d 07 00 94	bl	0x1000023bc ; symbol stub for: _strcmp
10000064c:	40 02 00 35	cbnz	w0, 0x100000694
100000650:	01 00 00 14	b	0x100000654
100000654:	a8 43 5d b8	ldur	w8, [x29, #-0x2c]
100000658:	08 05 00 11	add	w8, w8, #0x1
10000065c:	a9 83 5f b8	ldur	w9, [x29, #-0x8]
100000660:	08 01 09 6b	subs	w8, w8, w9
100000664:	8a 01 00 54	b.ge	0x100000694
100000668:	01 00 00 14	b	0x10000066c
10000066c:	a8 03 5f f8	ldur	x8, [x29, #-0x10]
100000670:	a9 43 5d b8	ldur	w9, [x29, #-0x2c]
100000674:	29 05 00 11	add	w9, w9, #0x1
100000678:	a9 43 1d b8	stur	w9, [x29, #-0x2c]
10000067c:	00 d9 69 f8	ldr	x0, [x8, w9, sxtw #3]
100000680:	01 00 80 d2	mov	x1, #0x0
100000684:	42 01 80 52	mov	w2, #0xa
100000688:	50 07 00 94	bl	0x1000023c8 ; symbol stub for: _strtoull
10000068c:	a0 83 1e f8	stur	x0, [x29, #-0x18]
100000690:	5e 00 00 14	b	0x100000808
100000694:	a8 03 5f f8	ldur	x8, [x29, #-0x10]
100000698:	a9 43 9d b8	ldursw	x9, [x29, #-0x2c]
10000069c:	00 79 69 f8	ldr	x0, [x8, x9, lsl #3]
1000006a0:	01 00 00 d0	adrp	x1, 2 ; 0x100002000
1000006a4:	21 00 11 91	add	x1, x1, #0x440 ; literal pool for: "--probe"
1000006a8:	45 07 00 94	bl	0x1000023bc ; symbol stub for: _strcmp
1000006ac:	e0 01 00 35	cbnz	w0, 0x1000006e8
1000006b0:	01 00 00 14	b	0x1000006b4
1000006b4:	a8 43 5d b8	ldur	w8, [x29, #-0x2c]
1000006b8:	08 05 00 11	add	w8, w8, #0x1
1000006bc:	a9 83 5f b8	ldur	w9, [x29, #-0x8]
1000006c0:	08 01 09 6b	subs	w8, w8, w9
1000006c4:	2a 01 00 54	b.ge	0x1000006e8
1000006c8:	01 00 00 14	b	0x1000006cc
1000006cc:	a8 03 5f f8	ldur	x8, [x29, #-0x10]
1000006d0:	a9 43 5d b8	ldur	w9, [x29, #-0x2c]
1000006d4:	29 05 00 11	add	w9, w9, #0x1
1000006d8:	a9 43 1d b8	stur	w9, [x29, #-0x2c]
1000006dc:	08 d9 69 f8	ldr	x8, [x8, w9, sxtw #3]
1000006e0:	a8 83 1d f8	stur	x8, [x29, #-0x28]
1000006e4:	48 00 00 14	b	0x100000804
1000006e8:	a8 03 5f f8	ldur	x8, [x29, #-0x10]
1000006ec:	a9 43 9d b8	ldursw	x9, [x29, #-0x2c]
1000006f0:	00 79 69 f8	ldr	x0, [x8, x9, lsl #3]
1000006f4:	01 00 00 d0	adrp	x1, 2 ; 0x100002000
1000006f8:	21 20 11 91	add	x1, x1, #0x448 ; literal pool for: "--csv"
1000006fc:	30 07 00 94	bl	0x1000023bc ; symbol stub for: _strcmp
100000700:	a0 00 00 35	cbnz	w0, 0x100000714
100000704:	01 00 00 14	b	0x100000708
100000708:	28 00 80 52	mov	w8, #0x1
10000070c:	a8 73 1e 38	sturb	w8, [x29, #-0x19]
100000710:	3c 00 00 14	b	0x100000800
100000714:	a8 03 5f f8	ldur	x8, [x29, #-0x10]
100000718:	a9 43 9d b8	ldursw	x9, [x29, #-0x2c]
10000071c:	00 79 69 f8	ldr	x0, [x8, x9, lsl #3]
100000720:	01 00 00 d0	adrp	x1, 2 ; 0x100002000
100000724:	21 38 11 91	add	x1, x1, #0x44e ; literal pool for: "--list-probes"
100000728:	25 07 00 94	bl	0x1000023bc ; symbol stub for: _strcmp
10000072c:	c0 02 00 35	cbnz	w0, 0x100000784
100000730:	01 00 00 14	b	0x100000734
100000734:	ff 1f 00 f9	str	xzr, [sp, #0x38]
100000738:	01 00 00 14	b	0x10000073c
10000073c:	e8 1f 40 f9	ldr	x8, [sp, #0x38]
100000740:	08 5d 00 f1	subs	x8, x8, #0x17
100000744:	c2 01 00 54	b.hs	0x10000077c
100000748:	01 00 00 14	b	0x10000074c
10000074c:	e8 1f 40 f9	ldr	x8, [sp, #0x38]
100000750:	09 03 80 d2	mov	x9, #0x18
100000754:	09 7d 09 9b	mul	x9, x8, x9
100000758:	28 00 00 90	adrp	x8, 4 ; 0x100004000
10000075c:	08 81 01 91	add	x8, x8, #0x60
100000760:	00 69 69 f8	ldr	x0, [x8, x9]
100000764:	1c 07 00 94	bl	0x1000023d4 ; symbol stub for: _puts
100000768:	01 00 00 14	b	0x10000076c
10000076c:	e8 1f 40 f9	ldr	x8, [sp, #0x38]
100000770:	08 05 00 91	add	x8, x8, #0x1
100000774:	e8 1f 00 f9	str	x8, [sp, #0x38]
100000778:	f1 ff ff 17	b	0x10000073c
10000077c:	bf c3 1f b8	stur	wzr, [x29, #-0x4]
100000780:	79 00 00 14	b	0x100000964
100000784:	a8 03 5f f8	ldur	x8, [x29, #-0x10]
100000788:	a9 43 9d b8	ldursw	x9, [x29, #-0x2c]
10000078c:	00 79 69 f8	ldr	x0, [x8, x9, lsl #3]
100000790:	01 00 00 d0	adrp	x1, 2 ; 0x100002000
100000794:	21 70 11 91	add	x1, x1, #0x45c ; literal pool for: "--help"
100000798:	09 07 00 94	bl	0x1000023bc ; symbol stub for: _strcmp
10000079c:	60 01 00 35	cbnz	w0, 0x1000007c8
1000007a0:	01 00 00 14	b	0x1000007a4
1000007a4:	a8 03 5f f8	ldur	x8, [x29, #-0x10]
1000007a8:	08 01 40 f9	ldr	x8, [x8]
1000007ac:	e9 03 00 91	mov	x9, sp
1000007b0:	28 01 00 f9	str	x8, [x9]
1000007b4:	00 00 00 d0	adrp	x0, 2 ; 0x100002000
1000007b8:	00 8c 11 91	add	x0, x0, #0x463 ; literal pool for: "usage: %s [--iters N] [--probe NAME] [--list-probes] [--csv]\n"
1000007bc:	09 07 00 94	bl	0x1000023e0 ; symbol stub for: _printf
1000007c0:	bf c3 1f b8	stur	wzr, [x29, #-0x4]
1000007c4:	68 00 00 14	b	0x100000964
1000007c8:	28 00 00 90	adrp	x8, 4 ; 0x100004000
1000007cc:	08 11 40 f9	ldr	x8, [x8, #0x20] ; literal pool symbol address: ___stderrp
1000007d0:	00 01 40 f9	ldr	x0, [x8]
1000007d4:	a8 03 5f f8	ldur	x8, [x29, #-0x10]
1000007d8:	a9 43 9d b8	ldursw	x9, [x29, #-0x2c]
1000007dc:	08 79 69 f8	ldr	x8, [x8, x9, lsl #3]
1000007e0:	e9 03 00 91	mov	x9, sp
1000007e4:	28 01 00 f9	str	x8, [x9]
1000007e8:	01 00 00 d0	adrp	x1, 2 ; 0x100002000
1000007ec:	21 84 12 91	add	x1, x1, #0x4a1 ; literal pool for: "unknown argument: %s\n"
1000007f0:	ff 06 00 94	bl	0x1000023ec ; symbol stub for: _fprintf
1000007f4:	28 00 80 52	mov	w8, #0x1
1000007f8:	a8 c3 1f b8	stur	w8, [x29, #-0x4]
1000007fc:	5a 00 00 14	b	0x100000964
100000800:	01 00 00 14	b	0x100000804
100000804:	01 00 00 14	b	0x100000808
100000808:	01 00 00 14	b	0x10000080c
10000080c:	a8 43 5d b8	ldur	w8, [x29, #-0x2c]
100000810:	08 05 00 11	add	w8, w8, #0x1
100000814:	a8 43 1d b8	stur	w8, [x29, #-0x2c]
100000818:	82 ff ff 17	b	0x100000620
10000081c:	a8 73 5e 38	ldurb	w8, [x29, #-0x19]
100000820:	c8 00 00 36	tbz	w8, #0x0, 0x100000838
100000824:	01 00 00 14	b	0x100000828
100000828:	00 00 00 d0	adrp	x0, 2 ; 0x100002000
10000082c:	00 dc 12 91	add	x0, x0, #0x4b7 ; literal pool for: "probe,iters,unroll,elapsed_ns,ns_per_op,approx_gops\n"
100000830:	ec 06 00 94	bl	0x1000023e0 ; symbol stub for: _printf
100000834:	01 00 00 14	b	0x100000838
100000838:	ff df 00 39	strb	wzr, [sp, #0x37]
10000083c:	ff 17 00 f9	str	xzr, [sp, #0x28]
100000840:	01 00 00 14	b	0x100000844
100000844:	e8 17 40 f9	ldr	x8, [sp, #0x28]
100000848:	08 5d 00 f1	subs	x8, x8, #0x17
10000084c:	22 05 00 54	b.hs	0x1000008f0
100000850:	01 00 00 14	b	0x100000854
100000854:	e8 17 40 f9	ldr	x8, [sp, #0x28]
100000858:	09 03 80 d2	mov	x9, #0x18
10000085c:	09 7d 09 9b	mul	x9, x8, x9
100000860:	28 00 00 90	adrp	x8, 4 ; 0x100004000
100000864:	08 81 01 91	add	x8, x8, #0x60
100000868:	08 01 09 8b	add	x8, x8, x9
10000086c:	e8 13 00 f9	str	x8, [sp, #0x20]
100000870:	a8 83 5d f8	ldur	x8, [x29, #-0x28]
100000874:	28 01 00 b4	cbz	x8, 0x100000898
100000878:	01 00 00 14	b	0x10000087c
10000087c:	a0 83 5d f8	ldur	x0, [x29, #-0x28]
100000880:	e8 13 40 f9	ldr	x8, [sp, #0x20]
100000884:	01 01 40 f9	ldr	x1, [x8]
100000888:	cd 06 00 94	bl	0x1000023bc ; symbol stub for: _strcmp
10000088c:	60 00 00 34	cbz	w0, 0x100000898
100000890:	01 00 00 14	b	0x100000894
100000894:	13 00 00 14	b	0x1000008e0
100000898:	28 00 80 52	mov	w8, #0x1
10000089c:	e8 df 00 39	strb	w8, [sp, #0x37]
1000008a0:	e8 13 40 f9	ldr	x8, [sp, #0x20]
1000008a4:	08 01 40 f9	ldr	x8, [x8]
1000008a8:	e8 0f 00 f9	str	x8, [sp, #0x18]
1000008ac:	e8 13 40 f9	ldr	x8, [sp, #0x20]
1000008b0:	08 05 40 f9	ldr	x8, [x8, #0x8]
1000008b4:	a0 83 5e f8	ldur	x0, [x29, #-0x18]
1000008b8:	00 01 3f d6	blr	x8
1000008bc:	e1 03 00 aa	mov	x1, x0
1000008c0:	e0 0f 40 f9	ldr	x0, [sp, #0x18]
1000008c4:	a2 83 5e f8	ldur	x2, [x29, #-0x18]
1000008c8:	e8 13 40 f9	ldr	x8, [sp, #0x20]
1000008cc:	03 11 40 b9	ldr	w3, [x8, #0x10]
1000008d0:	a8 73 5e 38	ldurb	w8, [x29, #-0x19]
1000008d4:	04 01 00 12	and	w4, w8, #0x1
1000008d8:	27 00 00 94	bl	_print_result
1000008dc:	01 00 00 14	b	0x1000008e0
1000008e0:	e8 17 40 f9	ldr	x8, [sp, #0x28]
1000008e4:	08 05 00 91	add	x8, x8, #0x1
1000008e8:	e8 17 00 f9	str	x8, [sp, #0x28]
1000008ec:	d6 ff ff 17	b	0x100000844
1000008f0:	e8 df 40 39	ldrb	w8, [sp, #0x37]
1000008f4:	48 03 00 37	tbnz	w8, #0x0, 0x10000095c
1000008f8:	01 00 00 14	b	0x1000008fc
1000008fc:	28 00 00 90	adrp	x8, 4 ; 0x100004000
100000900:	08 11 40 f9	ldr	x8, [x8, #0x20] ; literal pool symbol address: ___stderrp
100000904:	08 01 40 f9	ldr	x8, [x8]
100000908:	e8 0b 00 f9	str	x8, [sp, #0x10]
10000090c:	a8 83 5d f8	ldur	x8, [x29, #-0x28]
100000910:	a8 00 00 b4	cbz	x8, 0x100000924
100000914:	01 00 00 14	b	0x100000918
100000918:	a8 83 5d f8	ldur	x8, [x29, #-0x28]
10000091c:	e8 07 00 f9	str	x8, [sp, #0x8]
100000920:	05 00 00 14	b	0x100000934
100000924:	08 00 00 d0	adrp	x8, 2 ; 0x100002000
100000928:	08 25 14 91	add	x8, x8, #0x509 ; literal pool for: "(null)"
10000092c:	e8 07 00 f9	str	x8, [sp, #0x8]
100000930:	01 00 00 14	b	0x100000934
100000934:	e0 0b 40 f9	ldr	x0, [sp, #0x10]
100000938:	e8 07 40 f9	ldr	x8, [sp, #0x8]
10000093c:	e9 03 00 91	mov	x9, sp
100000940:	28 01 00 f9	str	x8, [x9]
100000944:	01 00 00 d0	adrp	x1, 2 ; 0x100002000
100000948:	21 b0 13 91	add	x1, x1, #0x4ec ; literal pool for: "no probe matched --probe %s\n"
10000094c:	a8 06 00 94	bl	0x1000023ec ; symbol stub for: _fprintf
100000950:	28 00 80 52	mov	w8, #0x1
100000954:	a8 c3 1f b8	stur	w8, [x29, #-0x4]
100000958:	03 00 00 14	b	0x100000964
10000095c:	bf c3 1f b8	stur	wzr, [x29, #-0x4]
100000960:	01 00 00 14	b	0x100000964
100000964:	a0 c3 5f b8	ldur	w0, [x29, #-0x4]
100000968:	fd 7b 47 a9	ldp	x29, x30, [sp, #0x70]
10000096c:	ff 03 02 91	add	sp, sp, #0x80
100000970:	c0 03 5f d6	ret
_print_result:
100000974:	ff 43 02 d1	sub	sp, sp, #0x90
100000978:	fd 7b 08 a9	stp	x29, x30, [sp, #0x80]
10000097c:	fd 03 02 91	add	x29, sp, #0x80
100000980:	a0 83 1f f8	stur	x0, [x29, #-0x8]
100000984:	a1 03 1f f8	stur	x1, [x29, #-0x10]
100000988:	a2 83 1e f8	stur	x2, [x29, #-0x18]
10000098c:	a3 43 1e b8	stur	w3, [x29, #-0x1c]
100000990:	a4 33 1e 38	sturb	w4, [x29, #-0x1d]
100000994:	a0 83 5e fc	ldur	d0, [x29, #-0x18]
100000998:	00 d8 61 7e	ucvtf	d0, d0
10000099c:	a2 43 5e bc	ldur	s2, [x29, #-0x1c]
1000009a0:	41 40 20 1e	fmov	s1, s2
1000009a4:	21 d8 61 7e	ucvtf	d1, d1
1000009a8:	00 08 61 1e	fmul	d0, d0, d1
1000009ac:	a0 83 1d fc	stur	d0, [x29, #-0x28]
1000009b0:	a0 83 5d fc	ldur	d0, [x29, #-0x28]
1000009b4:	08 20 60 1e	fcmp	d0, #0.0
1000009b8:	0d 01 00 54	b.le	0x1000009d8
1000009bc:	01 00 00 14	b	0x1000009c0
1000009c0:	a0 03 5f fc	ldur	d0, [x29, #-0x10]
1000009c4:	00 d8 61 7e	ucvtf	d0, d0
1000009c8:	a1 83 5d fc	ldur	d1, [x29, #-0x28]
1000009cc:	00 18 61 1e	fdiv	d0, d0, d1
1000009d0:	e0 1f 00 fd	str	d0, [sp, #0x38]
1000009d4:	04 00 00 14	b	0x1000009e4
1000009d8:	00 e4 00 2f	movi	d0, #0000000000000000
1000009dc:	e0 1f 00 fd	str	d0, [sp, #0x38]
1000009e0:	01 00 00 14	b	0x1000009e4
1000009e4:	e0 1f 40 fd	ldr	d0, [sp, #0x38]
1000009e8:	a0 03 1d fc	stur	d0, [x29, #-0x30]
1000009ec:	a8 03 5f f8	ldur	x8, [x29, #-0x10]
1000009f0:	08 01 00 f1	subs	x8, x8, #0x0
1000009f4:	09 01 00 54	b.ls	0x100000a14
1000009f8:	01 00 00 14	b	0x1000009fc
1000009fc:	a0 83 5d fc	ldur	d0, [x29, #-0x28]
100000a00:	a1 03 5f fc	ldur	d1, [x29, #-0x10]
100000a04:	21 d8 61 7e	ucvtf	d1, d1
100000a08:	00 18 61 1e	fdiv	d0, d0, d1
100000a0c:	e0 1b 00 fd	str	d0, [sp, #0x30]
100000a10:	04 00 00 14	b	0x100000a20
100000a14:	00 e4 00 2f	movi	d0, #0000000000000000
100000a18:	e0 1b 00 fd	str	d0, [sp, #0x30]
100000a1c:	01 00 00 14	b	0x100000a20
100000a20:	e0 1b 40 fd	ldr	d0, [sp, #0x30]
100000a24:	a0 83 1c fc	stur	d0, [x29, #-0x38]
100000a28:	a0 83 5c fc	ldur	d0, [x29, #-0x38]
100000a2c:	e0 23 00 fd	str	d0, [sp, #0x40]
100000a30:	a8 33 5e 38	ldurb	w8, [x29, #-0x1d]
100000a34:	88 02 00 36	tbz	w8, #0x0, 0x100000a84
100000a38:	01 00 00 14	b	0x100000a3c
100000a3c:	ac 83 5f f8	ldur	x12, [x29, #-0x8]
100000a40:	ab 83 5e f8	ldur	x11, [x29, #-0x18]
100000a44:	a8 43 5e b8	ldur	w8, [x29, #-0x1c]
100000a48:	ea 03 08 aa	mov	x10, x8
100000a4c:	a9 03 5f f8	ldur	x9, [x29, #-0x10]
100000a50:	a1 03 5d fc	ldur	d1, [x29, #-0x30]
100000a54:	e0 23 40 fd	ldr	d0, [sp, #0x40]
100000a58:	e8 03 00 91	mov	x8, sp
100000a5c:	0c 01 00 f9	str	x12, [x8]
100000a60:	0b 05 00 f9	str	x11, [x8, #0x8]
100000a64:	0a 09 00 f9	str	x10, [x8, #0x10]
100000a68:	09 0d 00 f9	str	x9, [x8, #0x18]
100000a6c:	01 11 00 fd	str	d1, [x8, #0x20]
100000a70:	00 15 00 fd	str	d0, [x8, #0x28]
100000a74:	00 00 00 d0	adrp	x0, 2 ; 0x100002000
100000a78:	00 24 1a 91	add	x0, x0, #0x689 ; literal pool for: "%s,%llu,%u,%llu,%.6f,%.6f\n"
100000a7c:	59 06 00 94	bl	0x1000023e0 ; symbol stub for: _printf
100000a80:	0e 00 00 14	b	0x100000ab8
100000a84:	aa 83 5f f8	ldur	x10, [x29, #-0x8]
100000a88:	a9 03 5f f8	ldur	x9, [x29, #-0x10]
100000a8c:	a1 03 5d fc	ldur	d1, [x29, #-0x30]
100000a90:	e0 23 40 fd	ldr	d0, [sp, #0x40]
100000a94:	e8 03 00 91	mov	x8, sp
100000a98:	0a 01 00 f9	str	x10, [x8]
100000a9c:	09 05 00 f9	str	x9, [x8, #0x8]
100000aa0:	01 09 00 fd	str	d1, [x8, #0x10]
100000aa4:	00 0d 00 fd	str	d0, [x8, #0x18]
100000aa8:	00 00 00 d0	adrp	x0, 2 ; 0x100002000
100000aac:	00 90 1a 91	add	x0, x0, #0x6a4 ; literal pool for: "%-24s elapsed_ns=%llu ns/op=%.6f approx_Gops=%.6f\n"
100000ab0:	4c 06 00 94	bl	0x1000023e0 ; symbol stub for: _printf
100000ab4:	01 00 00 14	b	0x100000ab8
100000ab8:	fd 7b 48 a9	ldp	x29, x30, [sp, #0x80]
100000abc:	ff 43 02 91	add	sp, sp, #0x90
100000ac0:	c0 03 5f d6	ret
_bench_add_dep:
100000ac4:	ff 03 01 d1	sub	sp, sp, #0x40
100000ac8:	fd 7b 03 a9	stp	x29, x30, [sp, #0x30]
100000acc:	fd c3 00 91	add	x29, sp, #0x30
100000ad0:	a0 83 1f f8	stur	x0, [x29, #-0x8]
100000ad4:	28 00 80 d2	mov	x8, #0x1
100000ad8:	a8 03 1f f8	stur	x8, [x29, #-0x10]
100000adc:	10 06 00 94	bl	_apple_re_now_ns
100000ae0:	e0 0f 00 f9	str	x0, [sp, #0x18]
100000ae4:	ff 07 00 f9	str	xzr, [sp, #0x8]
100000ae8:	01 00 00 14	b	0x100000aec
100000aec:	e8 07 40 f9	ldr	x8, [sp, #0x8]
100000af0:	a9 83 5f f8	ldur	x9, [x29, #-0x8]
100000af4:	08 01 09 eb	subs	x8, x8, x9
100000af8:	22 05 00 54	b.hs	0x100000b9c
100000afc:	01 00 00 14	b	0x100000b00
100000b00:	a8 03 5f f8	ldur	x8, [x29, #-0x10]
100000b04:	08 05 00 91	add	x8, x8, #0x1
100000b08:	08 05 00 91	add	x8, x8, #0x1
100000b0c:	08 05 00 91	add	x8, x8, #0x1
100000b10:	08 05 00 91	add	x8, x8, #0x1
100000b14:	08 05 00 91	add	x8, x8, #0x1
100000b18:	08 05 00 91	add	x8, x8, #0x1
100000b1c:	08 05 00 91	add	x8, x8, #0x1
100000b20:	08 05 00 91	add	x8, x8, #0x1
100000b24:	08 05 00 91	add	x8, x8, #0x1
100000b28:	08 05 00 91	add	x8, x8, #0x1
100000b2c:	08 05 00 91	add	x8, x8, #0x1
100000b30:	08 05 00 91	add	x8, x8, #0x1
100000b34:	08 05 00 91	add	x8, x8, #0x1
100000b38:	08 05 00 91	add	x8, x8, #0x1
100000b3c:	08 05 00 91	add	x8, x8, #0x1
100000b40:	08 05 00 91	add	x8, x8, #0x1
100000b44:	08 05 00 91	add	x8, x8, #0x1
100000b48:	08 05 00 91	add	x8, x8, #0x1
100000b4c:	08 05 00 91	add	x8, x8, #0x1
100000b50:	08 05 00 91	add	x8, x8, #0x1
100000b54:	08 05 00 91	add	x8, x8, #0x1
100000b58:	08 05 00 91	add	x8, x8, #0x1
100000b5c:	08 05 00 91	add	x8, x8, #0x1
100000b60:	08 05 00 91	add	x8, x8, #0x1
100000b64:	08 05 00 91	add	x8, x8, #0x1
100000b68:	08 05 00 91	add	x8, x8, #0x1
100000b6c:	08 05 00 91	add	x8, x8, #0x1
100000b70:	08 05 00 91	add	x8, x8, #0x1
100000b74:	08 05 00 91	add	x8, x8, #0x1
100000b78:	08 05 00 91	add	x8, x8, #0x1
100000b7c:	08 05 00 91	add	x8, x8, #0x1
100000b80:	08 05 00 91	add	x8, x8, #0x1
100000b84:	a8 03 1f f8	stur	x8, [x29, #-0x10]
100000b88:	01 00 00 14	b	0x100000b8c
100000b8c:	e8 07 40 f9	ldr	x8, [sp, #0x8]
100000b90:	08 05 00 91	add	x8, x8, #0x1
100000b94:	e8 07 00 f9	str	x8, [sp, #0x8]
100000b98:	d5 ff ff 17	b	0x100000aec
100000b9c:	e0 05 00 94	bl	_apple_re_now_ns
100000ba0:	e0 0b 00 f9	str	x0, [sp, #0x10]
100000ba4:	a8 03 5f f8	ldur	x8, [x29, #-0x10]
100000ba8:	49 00 00 90	adrp	x9, 8 ; 0x100008000
100000bac:	28 05 00 f9	str	x8, [x9, #0x8]
100000bb0:	e8 0b 40 f9	ldr	x8, [sp, #0x10]
100000bb4:	e9 0f 40 f9	ldr	x9, [sp, #0x18]
100000bb8:	00 01 09 eb	subs	x0, x8, x9
100000bbc:	fd 7b 43 a9	ldp	x29, x30, [sp, #0x30]
100000bc0:	ff 03 01 91	add	sp, sp, #0x40
100000bc4:	c0 03 5f d6	ret
_bench_add_dep_u32:
100000bc8:	ff 03 01 d1	sub	sp, sp, #0x40
100000bcc:	fd 7b 03 a9	stp	x29, x30, [sp, #0x30]
100000bd0:	fd c3 00 91	add	x29, sp, #0x30
100000bd4:	a0 83 1f f8	stur	x0, [x29, #-0x8]
100000bd8:	28 00 80 52	mov	w8, #0x1
100000bdc:	a8 43 1f b8	stur	w8, [x29, #-0xc]
100000be0:	cf 05 00 94	bl	_apple_re_now_ns
100000be4:	e0 0f 00 f9	str	x0, [sp, #0x18]
100000be8:	ff 0b 00 f9	str	xzr, [sp, #0x10]
100000bec:	01 00 00 14	b	0x100000bf0
100000bf0:	e8 0b 40 f9	ldr	x8, [sp, #0x10]
100000bf4:	a9 83 5f f8	ldur	x9, [x29, #-0x8]
100000bf8:	08 01 09 eb	subs	x8, x8, x9
100000bfc:	a2 02 00 54	b.hs	0x100000c50
100000c00:	01 00 00 14	b	0x100000c04
100000c04:	ff 0f 00 b9	str	wzr, [sp, #0xc]
100000c08:	01 00 00 14	b	0x100000c0c
100000c0c:	e8 0f 40 b9	ldr	w8, [sp, #0xc]
100000c10:	08 81 00 71	subs	w8, w8, #0x20
100000c14:	4a 01 00 54	b.ge	0x100000c3c
100000c18:	01 00 00 14	b	0x100000c1c
100000c1c:	a8 43 5f b8	ldur	w8, [x29, #-0xc]
100000c20:	08 05 00 11	add	w8, w8, #0x1
100000c24:	a8 43 1f b8	stur	w8, [x29, #-0xc]
100000c28:	01 00 00 14	b	0x100000c2c
100000c2c:	e8 0f 40 b9	ldr	w8, [sp, #0xc]
100000c30:	08 05 00 11	add	w8, w8, #0x1
100000c34:	e8 0f 00 b9	str	w8, [sp, #0xc]
100000c38:	f5 ff ff 17	b	0x100000c0c
100000c3c:	01 00 00 14	b	0x100000c40
100000c40:	e8 0b 40 f9	ldr	x8, [sp, #0x10]
100000c44:	08 05 00 91	add	x8, x8, #0x1
100000c48:	e8 0b 00 f9	str	x8, [sp, #0x10]
100000c4c:	e9 ff ff 17	b	0x100000bf0
100000c50:	b3 05 00 94	bl	_apple_re_now_ns
100000c54:	e0 03 00 f9	str	x0, [sp]
100000c58:	a8 43 5f b8	ldur	w8, [x29, #-0xc]
100000c5c:	49 00 00 90	adrp	x9, 8 ; 0x100008000
100000c60:	28 05 00 f9	str	x8, [x9, #0x8]
100000c64:	e8 03 40 f9	ldr	x8, [sp]
100000c68:	e9 0f 40 f9	ldr	x9, [sp, #0x18]
100000c6c:	00 01 09 eb	subs	x0, x8, x9
100000c70:	fd 7b 43 a9	ldp	x29, x30, [sp, #0x30]
100000c74:	ff 03 01 91	add	sp, sp, #0x40
100000c78:	c0 03 5f d6	ret
_bench_add_dep_i64:
100000c7c:	ff 03 01 d1	sub	sp, sp, #0x40
100000c80:	fd 7b 03 a9	stp	x29, x30, [sp, #0x30]
100000c84:	fd c3 00 91	add	x29, sp, #0x30
100000c88:	a0 83 1f f8	stur	x0, [x29, #-0x8]
100000c8c:	28 00 80 d2	mov	x8, #0x1
100000c90:	a8 03 1f f8	stur	x8, [x29, #-0x10]
100000c94:	a2 05 00 94	bl	_apple_re_now_ns
100000c98:	e0 0f 00 f9	str	x0, [sp, #0x18]
100000c9c:	ff 0b 00 f9	str	xzr, [sp, #0x10]
100000ca0:	01 00 00 14	b	0x100000ca4
100000ca4:	e8 0b 40 f9	ldr	x8, [sp, #0x10]
100000ca8:	a9 83 5f f8	ldur	x9, [x29, #-0x8]
100000cac:	08 01 09 eb	subs	x8, x8, x9
100000cb0:	a2 02 00 54	b.hs	0x100000d04
100000cb4:	01 00 00 14	b	0x100000cb8
100000cb8:	ff 0f 00 b9	str	wzr, [sp, #0xc]
100000cbc:	01 00 00 14	b	0x100000cc0
100000cc0:	e8 0f 40 b9	ldr	w8, [sp, #0xc]
100000cc4:	08 81 00 71	subs	w8, w8, #0x20
100000cc8:	4a 01 00 54	b.ge	0x100000cf0
100000ccc:	01 00 00 14	b	0x100000cd0
100000cd0:	a8 03 5f f8	ldur	x8, [x29, #-0x10]
100000cd4:	08 05 00 91	add	x8, x8, #0x1
100000cd8:	a8 03 1f f8	stur	x8, [x29, #-0x10]
100000cdc:	01 00 00 14	b	0x100000ce0
100000ce0:	e8 0f 40 b9	ldr	w8, [sp, #0xc]
100000ce4:	08 05 00 11	add	w8, w8, #0x1
100000ce8:	e8 0f 00 b9	str	w8, [sp, #0xc]
100000cec:	f5 ff ff 17	b	0x100000cc0
100000cf0:	01 00 00 14	b	0x100000cf4
100000cf4:	e8 0b 40 f9	ldr	x8, [sp, #0x10]
100000cf8:	08 05 00 91	add	x8, x8, #0x1
100000cfc:	e8 0b 00 f9	str	x8, [sp, #0x10]
100000d00:	e9 ff ff 17	b	0x100000ca4
100000d04:	86 05 00 94	bl	_apple_re_now_ns
100000d08:	e0 03 00 f9	str	x0, [sp]
100000d0c:	a8 03 5f f8	ldur	x8, [x29, #-0x10]
100000d10:	49 00 00 90	adrp	x9, 8 ; 0x100008000
100000d14:	28 05 00 f9	str	x8, [x9, #0x8]
100000d18:	e8 03 40 f9	ldr	x8, [sp]
100000d1c:	e9 0f 40 f9	ldr	x9, [sp, #0x18]
100000d20:	00 01 09 eb	subs	x0, x8, x9
100000d24:	fd 7b 43 a9	ldp	x29, x30, [sp, #0x30]
100000d28:	ff 03 01 91	add	sp, sp, #0x40
100000d2c:	c0 03 5f d6	ret
_bench_add_dep_i16:
100000d30:	ff 03 01 d1	sub	sp, sp, #0x40
100000d34:	fd 7b 03 a9	stp	x29, x30, [sp, #0x30]
100000d38:	fd c3 00 91	add	x29, sp, #0x30
100000d3c:	a0 83 1f f8	stur	x0, [x29, #-0x8]
100000d40:	28 00 80 52	mov	w8, #0x1
100000d44:	a8 63 1f 78	sturh	w8, [x29, #-0xa]
100000d48:	75 05 00 94	bl	_apple_re_now_ns
100000d4c:	e0 0f 00 f9	str	x0, [sp, #0x18]
100000d50:	ff 0b 00 f9	str	xzr, [sp, #0x10]
100000d54:	01 00 00 14	b	0x100000d58
100000d58:	e8 0b 40 f9	ldr	x8, [sp, #0x10]
100000d5c:	a9 83 5f f8	ldur	x9, [x29, #-0x8]
100000d60:	08 01 09 eb	subs	x8, x8, x9
100000d64:	a2 02 00 54	b.hs	0x100000db8
100000d68:	01 00 00 14	b	0x100000d6c
100000d6c:	ff 0f 00 b9	str	wzr, [sp, #0xc]
100000d70:	01 00 00 14	b	0x100000d74
100000d74:	e8 0f 40 b9	ldr	w8, [sp, #0xc]
100000d78:	08 81 00 71	subs	w8, w8, #0x20
100000d7c:	4a 01 00 54	b.ge	0x100000da4
100000d80:	01 00 00 14	b	0x100000d84
100000d84:	a8 63 df 78	ldursh	w8, [x29, #-0xa]
100000d88:	08 05 00 11	add	w8, w8, #0x1
100000d8c:	a8 63 1f 78	sturh	w8, [x29, #-0xa]
100000d90:	01 00 00 14	b	0x100000d94
100000d94:	e8 0f 40 b9	ldr	w8, [sp, #0xc]
100000d98:	08 05 00 11	add	w8, w8, #0x1
100000d9c:	e8 0f 00 b9	str	w8, [sp, #0xc]
100000da0:	f5 ff ff 17	b	0x100000d74
100000da4:	01 00 00 14	b	0x100000da8
100000da8:	e8 0b 40 f9	ldr	x8, [sp, #0x10]
100000dac:	08 05 00 91	add	x8, x8, #0x1
100000db0:	e8 0b 00 f9	str	x8, [sp, #0x10]
100000db4:	e9 ff ff 17	b	0x100000d58
100000db8:	59 05 00 94	bl	_apple_re_now_ns
100000dbc:	e0 03 00 f9	str	x0, [sp]
100000dc0:	a8 63 5f 78	ldurh	w8, [x29, #-0xa]
100000dc4:	49 00 00 90	adrp	x9, 8 ; 0x100008000
100000dc8:	28 05 00 f9	str	x8, [x9, #0x8]
100000dcc:	e8 03 40 f9	ldr	x8, [sp]
100000dd0:	e9 0f 40 f9	ldr	x9, [sp, #0x18]
100000dd4:	00 01 09 eb	subs	x0, x8, x9
100000dd8:	fd 7b 43 a9	ldp	x29, x30, [sp, #0x30]
100000ddc:	ff 03 01 91	add	sp, sp, #0x40
100000de0:	c0 03 5f d6	ret
_bench_add_dep_i8:
100000de4:	ff 03 01 d1	sub	sp, sp, #0x40
100000de8:	fd 7b 03 a9	stp	x29, x30, [sp, #0x30]
100000dec:	fd c3 00 91	add	x29, sp, #0x30
100000df0:	a0 83 1f f8	stur	x0, [x29, #-0x8]
100000df4:	28 00 80 52	mov	w8, #0x1
100000df8:	a8 73 1f 38	sturb	w8, [x29, #-0x9]
100000dfc:	48 05 00 94	bl	_apple_re_now_ns
100000e00:	e0 0f 00 f9	str	x0, [sp, #0x18]
100000e04:	ff 0b 00 f9	str	xzr, [sp, #0x10]
100000e08:	01 00 00 14	b	0x100000e0c
100000e0c:	e8 0b 40 f9	ldr	x8, [sp, #0x10]
100000e10:	a9 83 5f f8	ldur	x9, [x29, #-0x8]
100000e14:	08 01 09 eb	subs	x8, x8, x9
100000e18:	a2 02 00 54	b.hs	0x100000e6c
100000e1c:	01 00 00 14	b	0x100000e20
100000e20:	ff 0f 00 b9	str	wzr, [sp, #0xc]
100000e24:	01 00 00 14	b	0x100000e28
100000e28:	e8 0f 40 b9	ldr	w8, [sp, #0xc]
100000e2c:	08 81 00 71	subs	w8, w8, #0x20
100000e30:	4a 01 00 54	b.ge	0x100000e58
100000e34:	01 00 00 14	b	0x100000e38
100000e38:	a8 73 df 38	ldursb	w8, [x29, #-0x9]
100000e3c:	08 05 00 11	add	w8, w8, #0x1
100000e40:	a8 73 1f 38	sturb	w8, [x29, #-0x9]
100000e44:	01 00 00 14	b	0x100000e48
100000e48:	e8 0f 40 b9	ldr	w8, [sp, #0xc]
100000e4c:	08 05 00 11	add	w8, w8, #0x1
100000e50:	e8 0f 00 b9	str	w8, [sp, #0xc]
100000e54:	f5 ff ff 17	b	0x100000e28
100000e58:	01 00 00 14	b	0x100000e5c
100000e5c:	e8 0b 40 f9	ldr	x8, [sp, #0x10]
100000e60:	08 05 00 91	add	x8, x8, #0x1
100000e64:	e8 0b 00 f9	str	x8, [sp, #0x10]
100000e68:	e9 ff ff 17	b	0x100000e0c
100000e6c:	2c 05 00 94	bl	_apple_re_now_ns
100000e70:	e0 03 00 f9	str	x0, [sp]
100000e74:	a8 73 5f 38	ldurb	w8, [x29, #-0x9]
100000e78:	49 00 00 90	adrp	x9, 8 ; 0x100008000
100000e7c:	28 05 00 f9	str	x8, [x9, #0x8]
100000e80:	e8 03 40 f9	ldr	x8, [sp]
100000e84:	e9 0f 40 f9	ldr	x9, [sp, #0x18]
100000e88:	00 01 09 eb	subs	x0, x8, x9
100000e8c:	fd 7b 43 a9	ldp	x29, x30, [sp, #0x30]
100000e90:	ff 03 01 91	add	sp, sp, #0x40
100000e94:	c0 03 5f d6	ret
_bench_add_dep_u16:
100000e98:	ff 03 01 d1	sub	sp, sp, #0x40
100000e9c:	fd 7b 03 a9	stp	x29, x30, [sp, #0x30]
100000ea0:	fd c3 00 91	add	x29, sp, #0x30
100000ea4:	a0 83 1f f8	stur	x0, [x29, #-0x8]
100000ea8:	28 00 80 52	mov	w8, #0x1
100000eac:	a8 63 1f 78	sturh	w8, [x29, #-0xa]
100000eb0:	1b 05 00 94	bl	_apple_re_now_ns
100000eb4:	e0 0f 00 f9	str	x0, [sp, #0x18]
100000eb8:	ff 0b 00 f9	str	xzr, [sp, #0x10]
100000ebc:	01 00 00 14	b	0x100000ec0
100000ec0:	e8 0b 40 f9	ldr	x8, [sp, #0x10]
100000ec4:	a9 83 5f f8	ldur	x9, [x29, #-0x8]
100000ec8:	08 01 09 eb	subs	x8, x8, x9
100000ecc:	a2 02 00 54	b.hs	0x100000f20
100000ed0:	01 00 00 14	b	0x100000ed4
100000ed4:	ff 0f 00 b9	str	wzr, [sp, #0xc]
100000ed8:	01 00 00 14	b	0x100000edc
100000edc:	e8 0f 40 b9	ldr	w8, [sp, #0xc]
100000ee0:	08 81 00 71	subs	w8, w8, #0x20
100000ee4:	4a 01 00 54	b.ge	0x100000f0c
100000ee8:	01 00 00 14	b	0x100000eec
100000eec:	a8 63 5f 78	ldurh	w8, [x29, #-0xa]
100000ef0:	08 05 00 11	add	w8, w8, #0x1
100000ef4:	a8 63 1f 78	sturh	w8, [x29, #-0xa]
100000ef8:	01 00 00 14	b	0x100000efc
100000efc:	e8 0f 40 b9	ldr	w8, [sp, #0xc]
100000f00:	08 05 00 11	add	w8, w8, #0x1
100000f04:	e8 0f 00 b9	str	w8, [sp, #0xc]
100000f08:	f5 ff ff 17	b	0x100000edc
100000f0c:	01 00 00 14	b	0x100000f10
100000f10:	e8 0b 40 f9	ldr	x8, [sp, #0x10]
100000f14:	08 05 00 91	add	x8, x8, #0x1
100000f18:	e8 0b 00 f9	str	x8, [sp, #0x10]
100000f1c:	e9 ff ff 17	b	0x100000ec0
100000f20:	ff 04 00 94	bl	_apple_re_now_ns
100000f24:	e0 03 00 f9	str	x0, [sp]
100000f28:	a8 63 5f 78	ldurh	w8, [x29, #-0xa]
100000f2c:	49 00 00 90	adrp	x9, 8 ; 0x100008000
100000f30:	28 05 00 f9	str	x8, [x9, #0x8]
100000f34:	e8 03 40 f9	ldr	x8, [sp]
100000f38:	e9 0f 40 f9	ldr	x9, [sp, #0x18]
100000f3c:	00 01 09 eb	subs	x0, x8, x9
100000f40:	fd 7b 43 a9	ldp	x29, x30, [sp, #0x30]
100000f44:	ff 03 01 91	add	sp, sp, #0x40
100000f48:	c0 03 5f d6	ret
_bench_add_dep_u8:
100000f4c:	ff 03 01 d1	sub	sp, sp, #0x40
100000f50:	fd 7b 03 a9	stp	x29, x30, [sp, #0x30]
100000f54:	fd c3 00 91	add	x29, sp, #0x30
100000f58:	a0 83 1f f8	stur	x0, [x29, #-0x8]
100000f5c:	28 00 80 52	mov	w8, #0x1
100000f60:	a8 73 1f 38	sturb	w8, [x29, #-0x9]
100000f64:	ee 04 00 94	bl	_apple_re_now_ns
100000f68:	e0 0f 00 f9	str	x0, [sp, #0x18]
100000f6c:	ff 0b 00 f9	str	xzr, [sp, #0x10]
100000f70:	01 00 00 14	b	0x100000f74
100000f74:	e8 0b 40 f9	ldr	x8, [sp, #0x10]
100000f78:	a9 83 5f f8	ldur	x9, [x29, #-0x8]
100000f7c:	08 01 09 eb	subs	x8, x8, x9
100000f80:	a2 02 00 54	b.hs	0x100000fd4
100000f84:	01 00 00 14	b	0x100000f88
100000f88:	ff 0f 00 b9	str	wzr, [sp, #0xc]
100000f8c:	01 00 00 14	b	0x100000f90
100000f90:	e8 0f 40 b9	ldr	w8, [sp, #0xc]
100000f94:	08 81 00 71	subs	w8, w8, #0x20
100000f98:	4a 01 00 54	b.ge	0x100000fc0
100000f9c:	01 00 00 14	b	0x100000fa0
100000fa0:	a8 73 5f 38	ldurb	w8, [x29, #-0x9]
100000fa4:	08 05 00 11	add	w8, w8, #0x1
100000fa8:	a8 73 1f 38	sturb	w8, [x29, #-0x9]
100000fac:	01 00 00 14	b	0x100000fb0
100000fb0:	e8 0f 40 b9	ldr	w8, [sp, #0xc]
100000fb4:	08 05 00 11	add	w8, w8, #0x1
100000fb8:	e8 0f 00 b9	str	w8, [sp, #0xc]
100000fbc:	f5 ff ff 17	b	0x100000f90
100000fc0:	01 00 00 14	b	0x100000fc4
100000fc4:	e8 0b 40 f9	ldr	x8, [sp, #0x10]
100000fc8:	08 05 00 91	add	x8, x8, #0x1
100000fcc:	e8 0b 00 f9	str	x8, [sp, #0x10]
100000fd0:	e9 ff ff 17	b	0x100000f74
100000fd4:	d2 04 00 94	bl	_apple_re_now_ns
100000fd8:	e0 03 00 f9	str	x0, [sp]
100000fdc:	a8 73 5f 38	ldurb	w8, [x29, #-0x9]
100000fe0:	49 00 00 90	adrp	x9, 8 ; 0x100008000
100000fe4:	28 05 00 f9	str	x8, [x9, #0x8]
100000fe8:	e8 03 40 f9	ldr	x8, [sp]
100000fec:	e9 0f 40 f9	ldr	x9, [sp, #0x18]
100000ff0:	00 01 09 eb	subs	x0, x8, x9
100000ff4:	fd 7b 43 a9	ldp	x29, x30, [sp, #0x30]
100000ff8:	ff 03 01 91	add	sp, sp, #0x40
100000ffc:	c0 03 5f d6	ret
_bench_fadd_dep:
100001000:	ff 03 01 d1	sub	sp, sp, #0x40
100001004:	fd 7b 03 a9	stp	x29, x30, [sp, #0x30]
100001008:	fd c3 00 91	add	x29, sp, #0x30
10000100c:	a0 83 1f f8	stur	x0, [x29, #-0x8]
100001010:	00 10 6e 1e	fmov	d0, #1.00000000
100001014:	a0 03 1f fc	stur	d0, [x29, #-0x10]
100001018:	e0 0f 00 fd	str	d0, [sp, #0x18]
10000101c:	c0 04 00 94	bl	_apple_re_now_ns
100001020:	e0 0b 00 f9	str	x0, [sp, #0x10]
100001024:	ff 03 00 f9	str	xzr, [sp]
100001028:	01 00 00 14	b	0x10000102c
10000102c:	e8 03 40 f9	ldr	x8, [sp]
100001030:	a9 83 5f f8	ldur	x9, [x29, #-0x8]
100001034:	08 01 09 eb	subs	x8, x8, x9
100001038:	42 05 00 54	b.hs	0x1000010e0
10000103c:	01 00 00 14	b	0x100001040
100001040:	a0 03 5f fc	ldur	d0, [x29, #-0x10]
100001044:	01 10 6e 1e	fmov	d1, #1.00000000
100001048:	00 28 61 1e	fadd	d0, d0, d1
10000104c:	00 28 61 1e	fadd	d0, d0, d1
100001050:	00 28 61 1e	fadd	d0, d0, d1
100001054:	00 28 61 1e	fadd	d0, d0, d1
100001058:	00 28 61 1e	fadd	d0, d0, d1
10000105c:	00 28 61 1e	fadd	d0, d0, d1
100001060:	00 28 61 1e	fadd	d0, d0, d1
100001064:	00 28 61 1e	fadd	d0, d0, d1
100001068:	00 28 61 1e	fadd	d0, d0, d1
10000106c:	00 28 61 1e	fadd	d0, d0, d1
100001070:	00 28 61 1e	fadd	d0, d0, d1
100001074:	00 28 61 1e	fadd	d0, d0, d1
100001078:	00 28 61 1e	fadd	d0, d0, d1
10000107c:	00 28 61 1e	fadd	d0, d0, d1
100001080:	00 28 61 1e	fadd	d0, d0, d1
100001084:	00 28 61 1e	fadd	d0, d0, d1
100001088:	00 28 61 1e	fadd	d0, d0, d1
10000108c:	00 28 61 1e	fadd	d0, d0, d1
100001090:	00 28 61 1e	fadd	d0, d0, d1
100001094:	00 28 61 1e	fadd	d0, d0, d1
100001098:	00 28 61 1e	fadd	d0, d0, d1
10000109c:	00 28 61 1e	fadd	d0, d0, d1
1000010a0:	00 28 61 1e	fadd	d0, d0, d1
1000010a4:	00 28 61 1e	fadd	d0, d0, d1
1000010a8:	00 28 61 1e	fadd	d0, d0, d1
1000010ac:	00 28 61 1e	fadd	d0, d0, d1
1000010b0:	00 28 61 1e	fadd	d0, d0, d1
1000010b4:	00 28 61 1e	fadd	d0, d0, d1
1000010b8:	00 28 61 1e	fadd	d0, d0, d1
1000010bc:	00 28 61 1e	fadd	d0, d0, d1
1000010c0:	00 28 61 1e	fadd	d0, d0, d1
1000010c4:	00 28 61 1e	fadd	d0, d0, d1
1000010c8:	a0 03 1f fc	stur	d0, [x29, #-0x10]
1000010cc:	01 00 00 14	b	0x1000010d0
1000010d0:	e8 03 40 f9	ldr	x8, [sp]
1000010d4:	08 05 00 91	add	x8, x8, #0x1
1000010d8:	e8 03 00 f9	str	x8, [sp]
1000010dc:	d4 ff ff 17	b	0x10000102c
1000010e0:	8f 04 00 94	bl	_apple_re_now_ns
1000010e4:	e0 07 00 f9	str	x0, [sp, #0x8]
1000010e8:	a0 03 5f fc	ldur	d0, [x29, #-0x10]
1000010ec:	28 00 00 f0	adrp	x8, 7 ; 0x100008000
1000010f0:	00 0d 00 fd	str	d0, [x8, #0x18]
1000010f4:	e8 07 40 f9	ldr	x8, [sp, #0x8]
1000010f8:	e9 0b 40 f9	ldr	x9, [sp, #0x10]
1000010fc:	00 01 09 eb	subs	x0, x8, x9
100001100:	fd 7b 43 a9	ldp	x29, x30, [sp, #0x30]
100001104:	ff 03 01 91	add	sp, sp, #0x40
100001108:	c0 03 5f d6	ret
_bench_fadd_f32_dep:
10000110c:	ff 03 01 d1	sub	sp, sp, #0x40
100001110:	fd 7b 03 a9	stp	x29, x30, [sp, #0x30]
100001114:	fd c3 00 91	add	x29, sp, #0x30
100001118:	a0 83 1f f8	stur	x0, [x29, #-0x8]
10000111c:	00 10 2e 1e	fmov	s0, #1.00000000
100001120:	a0 43 1f bc	stur	s0, [x29, #-0xc]
100001124:	a0 03 1f bc	stur	s0, [x29, #-0x10]
100001128:	7d 04 00 94	bl	_apple_re_now_ns
10000112c:	e0 0f 00 f9	str	x0, [sp, #0x18]
100001130:	ff 07 00 f9	str	xzr, [sp, #0x8]
100001134:	01 00 00 14	b	0x100001138
100001138:	e8 07 40 f9	ldr	x8, [sp, #0x8]
10000113c:	a9 83 5f f8	ldur	x9, [x29, #-0x8]
100001140:	08 01 09 eb	subs	x8, x8, x9
100001144:	42 05 00 54	b.hs	0x1000011ec
100001148:	01 00 00 14	b	0x10000114c
10000114c:	a0 43 5f bc	ldur	s0, [x29, #-0xc]
100001150:	01 10 2e 1e	fmov	s1, #1.00000000
100001154:	00 28 21 1e	fadd	s0, s0, s1
100001158:	00 28 21 1e	fadd	s0, s0, s1
10000115c:	00 28 21 1e	fadd	s0, s0, s1
100001160:	00 28 21 1e	fadd	s0, s0, s1
100001164:	00 28 21 1e	fadd	s0, s0, s1
100001168:	00 28 21 1e	fadd	s0, s0, s1
10000116c:	00 28 21 1e	fadd	s0, s0, s1
100001170:	00 28 21 1e	fadd	s0, s0, s1
100001174:	00 28 21 1e	fadd	s0, s0, s1
100001178:	00 28 21 1e	fadd	s0, s0, s1
10000117c:	00 28 21 1e	fadd	s0, s0, s1
100001180:	00 28 21 1e	fadd	s0, s0, s1
100001184:	00 28 21 1e	fadd	s0, s0, s1
100001188:	00 28 21 1e	fadd	s0, s0, s1
10000118c:	00 28 21 1e	fadd	s0, s0, s1
100001190:	00 28 21 1e	fadd	s0, s0, s1
100001194:	00 28 21 1e	fadd	s0, s0, s1
100001198:	00 28 21 1e	fadd	s0, s0, s1
10000119c:	00 28 21 1e	fadd	s0, s0, s1
1000011a0:	00 28 21 1e	fadd	s0, s0, s1
1000011a4:	00 28 21 1e	fadd	s0, s0, s1
1000011a8:	00 28 21 1e	fadd	s0, s0, s1
1000011ac:	00 28 21 1e	fadd	s0, s0, s1
1000011b0:	00 28 21 1e	fadd	s0, s0, s1
1000011b4:	00 28 21 1e	fadd	s0, s0, s1
1000011b8:	00 28 21 1e	fadd	s0, s0, s1
1000011bc:	00 28 21 1e	fadd	s0, s0, s1
1000011c0:	00 28 21 1e	fadd	s0, s0, s1
1000011c4:	00 28 21 1e	fadd	s0, s0, s1
1000011c8:	00 28 21 1e	fadd	s0, s0, s1
1000011cc:	00 28 21 1e	fadd	s0, s0, s1
1000011d0:	00 28 21 1e	fadd	s0, s0, s1
1000011d4:	a0 43 1f bc	stur	s0, [x29, #-0xc]
1000011d8:	01 00 00 14	b	0x1000011dc
1000011dc:	e8 07 40 f9	ldr	x8, [sp, #0x8]
1000011e0:	08 05 00 91	add	x8, x8, #0x1
1000011e4:	e8 07 00 f9	str	x8, [sp, #0x8]
1000011e8:	d4 ff ff 17	b	0x100001138
1000011ec:	4c 04 00 94	bl	_apple_re_now_ns
1000011f0:	e0 0b 00 f9	str	x0, [sp, #0x10]
1000011f4:	a0 43 5f bc	ldur	s0, [x29, #-0xc]
1000011f8:	00 c0 22 1e	fcvt	d0, s0
1000011fc:	28 00 00 f0	adrp	x8, 7 ; 0x100008000
100001200:	00 0d 00 fd	str	d0, [x8, #0x18]
100001204:	e8 0b 40 f9	ldr	x8, [sp, #0x10]
100001208:	e9 0f 40 f9	ldr	x9, [sp, #0x18]
10000120c:	00 01 09 eb	subs	x0, x8, x9
100001210:	fd 7b 43 a9	ldp	x29, x30, [sp, #0x30]
100001214:	ff 03 01 91	add	sp, sp, #0x40
100001218:	c0 03 5f d6	ret
_bench_fmadd_dep:
10000121c:	ff 43 01 d1	sub	sp, sp, #0x50
100001220:	fd 7b 04 a9	stp	x29, x30, [sp, #0x40]
100001224:	fd 03 01 91	add	x29, sp, #0x40
100001228:	a0 83 1f f8	stur	x0, [x29, #-0x8]
10000122c:	00 10 6e 1e	fmov	d0, #1.00000000
100001230:	a0 03 1f fc	stur	d0, [x29, #-0x10]
100001234:	08 00 a4 d2	mov	x8, #0x20000000
100001238:	08 fe e7 f2	movk	x8, #0x3ff0, lsl #48
10000123c:	00 01 67 9e	fmov	d0, x8
100001240:	a0 83 1e fc	stur	d0, [x29, #-0x18]
100001244:	e8 4b 63 b2	mov	x8, #0xffffe0000000
100001248:	e8 fd e7 f2	movk	x8, #0x3fef, lsl #48
10000124c:	00 01 67 9e	fmov	d0, x8
100001250:	e0 13 00 fd	str	d0, [sp, #0x20]
100001254:	32 04 00 94	bl	_apple_re_now_ns
100001258:	e0 0f 00 f9	str	x0, [sp, #0x18]
10000125c:	ff 07 00 f9	str	xzr, [sp, #0x8]
100001260:	01 00 00 14	b	0x100001264
100001264:	e8 07 40 f9	ldr	x8, [sp, #0x8]
100001268:	a9 83 5f f8	ldur	x9, [x29, #-0x8]
10000126c:	08 01 09 eb	subs	x8, x8, x9
100001270:	e2 05 00 54	b.hs	0x10000132c
100001274:	01 00 00 14	b	0x100001278
100001278:	a0 03 5f fc	ldur	d0, [x29, #-0x10]
10000127c:	08 00 a4 d2	mov	x8, #0x20000000
100001280:	08 fe e7 f2	movk	x8, #0x3ff0, lsl #48
100001284:	01 01 67 9e	fmov	d1, x8
100001288:	e8 4b 63 b2	mov	x8, #0xffffe0000000
10000128c:	e8 fd e7 f2	movk	x8, #0x3fef, lsl #48
100001290:	02 01 67 9e	fmov	d2, x8
100001294:	00 08 41 1f	fmadd	d0, d0, d1, d2
100001298:	00 08 41 1f	fmadd	d0, d0, d1, d2
10000129c:	00 08 41 1f	fmadd	d0, d0, d1, d2
1000012a0:	00 08 41 1f	fmadd	d0, d0, d1, d2
1000012a4:	00 08 41 1f	fmadd	d0, d0, d1, d2
1000012a8:	00 08 41 1f	fmadd	d0, d0, d1, d2
1000012ac:	00 08 41 1f	fmadd	d0, d0, d1, d2
1000012b0:	00 08 41 1f	fmadd	d0, d0, d1, d2
1000012b4:	00 08 41 1f	fmadd	d0, d0, d1, d2
1000012b8:	00 08 41 1f	fmadd	d0, d0, d1, d2
1000012bc:	00 08 41 1f	fmadd	d0, d0, d1, d2
1000012c0:	00 08 41 1f	fmadd	d0, d0, d1, d2
1000012c4:	00 08 41 1f	fmadd	d0, d0, d1, d2
1000012c8:	00 08 41 1f	fmadd	d0, d0, d1, d2
1000012cc:	00 08 41 1f	fmadd	d0, d0, d1, d2
1000012d0:	00 08 41 1f	fmadd	d0, d0, d1, d2
1000012d4:	00 08 41 1f	fmadd	d0, d0, d1, d2
1000012d8:	00 08 41 1f	fmadd	d0, d0, d1, d2
1000012dc:	00 08 41 1f	fmadd	d0, d0, d1, d2
1000012e0:	00 08 41 1f	fmadd	d0, d0, d1, d2
1000012e4:	00 08 41 1f	fmadd	d0, d0, d1, d2
1000012e8:	00 08 41 1f	fmadd	d0, d0, d1, d2
1000012ec:	00 08 41 1f	fmadd	d0, d0, d1, d2
1000012f0:	00 08 41 1f	fmadd	d0, d0, d1, d2
1000012f4:	00 08 41 1f	fmadd	d0, d0, d1, d2
1000012f8:	00 08 41 1f	fmadd	d0, d0, d1, d2
1000012fc:	00 08 41 1f	fmadd	d0, d0, d1, d2
100001300:	00 08 41 1f	fmadd	d0, d0, d1, d2
100001304:	00 08 41 1f	fmadd	d0, d0, d1, d2
100001308:	00 08 41 1f	fmadd	d0, d0, d1, d2
10000130c:	00 08 41 1f	fmadd	d0, d0, d1, d2
100001310:	00 08 41 1f	fmadd	d0, d0, d1, d2
100001314:	a0 03 1f fc	stur	d0, [x29, #-0x10]
100001318:	01 00 00 14	b	0x10000131c
10000131c:	e8 07 40 f9	ldr	x8, [sp, #0x8]
100001320:	08 05 00 91	add	x8, x8, #0x1
100001324:	e8 07 00 f9	str	x8, [sp, #0x8]
100001328:	cf ff ff 17	b	0x100001264
10000132c:	fc 03 00 94	bl	_apple_re_now_ns
100001330:	e0 0b 00 f9	str	x0, [sp, #0x10]
100001334:	a0 03 5f fc	ldur	d0, [x29, #-0x10]
100001338:	28 00 00 f0	adrp	x8, 7 ; 0x100008000
10000133c:	00 0d 00 fd	str	d0, [x8, #0x18]
100001340:	e8 0b 40 f9	ldr	x8, [sp, #0x10]
100001344:	e9 0f 40 f9	ldr	x9, [sp, #0x18]
100001348:	00 01 09 eb	subs	x0, x8, x9
10000134c:	fd 7b 44 a9	ldp	x29, x30, [sp, #0x40]
100001350:	ff 43 01 91	add	sp, sp, #0x50
100001354:	c0 03 5f d6	ret
_bench_bfloat16_roundtrip_proxy:
100001358:	ff 03 01 d1	sub	sp, sp, #0x40
10000135c:	fd 7b 03 a9	stp	x29, x30, [sp, #0x30]
100001360:	fd c3 00 91	add	x29, sp, #0x30
100001364:	a0 83 1f f8	stur	x0, [x29, #-0x8]
100001368:	00 10 2e 1e	fmov	s0, #1.00000000
10000136c:	a0 43 1f bc	stur	s0, [x29, #-0xc]
100001370:	eb 03 00 94	bl	_apple_re_now_ns
100001374:	e0 0f 00 f9	str	x0, [sp, #0x18]
100001378:	ff 07 00 f9	str	xzr, [sp, #0x8]
10000137c:	01 00 00 14	b	0x100001380
100001380:	e8 07 40 f9	ldr	x8, [sp, #0x8]
100001384:	a9 83 5f f8	ldur	x9, [x29, #-0x8]
100001388:	08 01 09 eb	subs	x8, x8, x9
10000138c:	e2 02 00 54	b.hs	0x1000013e8
100001390:	01 00 00 14	b	0x100001394
100001394:	ff 07 00 b9	str	wzr, [sp, #0x4]
100001398:	01 00 00 14	b	0x10000139c
10000139c:	e8 07 40 b9	ldr	w8, [sp, #0x4]
1000013a0:	08 81 00 71	subs	w8, w8, #0x20
1000013a4:	8a 01 00 54	b.ge	0x1000013d4
1000013a8:	01 00 00 14	b	0x1000013ac
1000013ac:	a0 43 5f bc	ldur	s0, [x29, #-0xc]
1000013b0:	01 10 28 1e	fmov	s1, #0.12500000
1000013b4:	00 28 21 1e	fadd	s0, s0, s1
1000013b8:	f2 03 00 94	bl	_quantize_bfloat16_proxy
1000013bc:	a0 43 1f bc	stur	s0, [x29, #-0xc]
1000013c0:	01 00 00 14	b	0x1000013c4
1000013c4:	e8 07 40 b9	ldr	w8, [sp, #0x4]
1000013c8:	08 05 00 11	add	w8, w8, #0x1
1000013cc:	e8 07 00 b9	str	w8, [sp, #0x4]
1000013d0:	f3 ff ff 17	b	0x10000139c
1000013d4:	01 00 00 14	b	0x1000013d8
1000013d8:	e8 07 40 f9	ldr	x8, [sp, #0x8]
1000013dc:	08 05 00 91	add	x8, x8, #0x1
1000013e0:	e8 07 00 f9	str	x8, [sp, #0x8]
1000013e4:	e7 ff ff 17	b	0x100001380
1000013e8:	cd 03 00 94	bl	_apple_re_now_ns
1000013ec:	e0 0b 00 f9	str	x0, [sp, #0x10]
1000013f0:	a0 43 5f bc	ldur	s0, [x29, #-0xc]
1000013f4:	00 c0 22 1e	fcvt	d0, s0
1000013f8:	28 00 00 f0	adrp	x8, 7 ; 0x100008000
1000013fc:	00 0d 00 fd	str	d0, [x8, #0x18]
100001400:	e8 0b 40 f9	ldr	x8, [sp, #0x10]
100001404:	e9 0f 40 f9	ldr	x9, [sp, #0x18]
100001408:	00 01 09 eb	subs	x0, x8, x9
10000140c:	fd 7b 43 a9	ldp	x29, x30, [sp, #0x30]
100001410:	ff 03 01 91	add	sp, sp, #0x40
100001414:	c0 03 5f d6	ret
_bench_fcvt_f32_to_f16_dep:
100001418:	ff 03 01 d1	sub	sp, sp, #0x40
10000141c:	fd 7b 03 a9	stp	x29, x30, [sp, #0x30]
100001420:	fd c3 00 91	add	x29, sp, #0x30
100001424:	a0 83 1f f8	stur	x0, [x29, #-0x8]
100001428:	00 10 2e 1e	fmov	s0, #1.00000000
10000142c:	a0 43 1f bc	stur	s0, [x29, #-0xc]
100001430:	bb 03 00 94	bl	_apple_re_now_ns
100001434:	e0 0f 00 f9	str	x0, [sp, #0x18]
100001438:	ff 07 00 f9	str	xzr, [sp, #0x8]
10000143c:	01 00 00 14	b	0x100001440
100001440:	e8 07 40 f9	ldr	x8, [sp, #0x8]
100001444:	a9 83 5f f8	ldur	x9, [x29, #-0x8]
100001448:	08 01 09 eb	subs	x8, x8, x9
10000144c:	22 05 00 54	b.hs	0x1000014f0
100001450:	01 00 00 14	b	0x100001454
100001454:	a0 43 5f bc	ldur	s0, [x29, #-0xc]
100001458:	00 c0 23 1e	fcvt	h0, s0
10000145c:	00 40 e2 1e	fcvt	s0, h0
100001460:	00 c0 23 1e	fcvt	h0, s0
100001464:	00 40 e2 1e	fcvt	s0, h0
100001468:	00 c0 23 1e	fcvt	h0, s0
10000146c:	00 40 e2 1e	fcvt	s0, h0
100001470:	00 c0 23 1e	fcvt	h0, s0
100001474:	00 40 e2 1e	fcvt	s0, h0
100001478:	00 c0 23 1e	fcvt	h0, s0
10000147c:	00 40 e2 1e	fcvt	s0, h0
100001480:	00 c0 23 1e	fcvt	h0, s0
100001484:	00 40 e2 1e	fcvt	s0, h0
100001488:	00 c0 23 1e	fcvt	h0, s0
10000148c:	00 40 e2 1e	fcvt	s0, h0
100001490:	00 c0 23 1e	fcvt	h0, s0
100001494:	00 40 e2 1e	fcvt	s0, h0
100001498:	00 c0 23 1e	fcvt	h0, s0
10000149c:	00 40 e2 1e	fcvt	s0, h0
1000014a0:	00 c0 23 1e	fcvt	h0, s0
1000014a4:	00 40 e2 1e	fcvt	s0, h0
1000014a8:	00 c0 23 1e	fcvt	h0, s0
1000014ac:	00 40 e2 1e	fcvt	s0, h0
1000014b0:	00 c0 23 1e	fcvt	h0, s0
1000014b4:	00 40 e2 1e	fcvt	s0, h0
1000014b8:	00 c0 23 1e	fcvt	h0, s0
1000014bc:	00 40 e2 1e	fcvt	s0, h0
1000014c0:	00 c0 23 1e	fcvt	h0, s0
1000014c4:	00 40 e2 1e	fcvt	s0, h0
1000014c8:	00 c0 23 1e	fcvt	h0, s0
1000014cc:	00 40 e2 1e	fcvt	s0, h0
1000014d0:	00 c0 23 1e	fcvt	h0, s0
1000014d4:	00 40 e2 1e	fcvt	s0, h0
1000014d8:	a0 43 1f bc	stur	s0, [x29, #-0xc]
1000014dc:	01 00 00 14	b	0x1000014e0
1000014e0:	e8 07 40 f9	ldr	x8, [sp, #0x8]
1000014e4:	08 05 00 91	add	x8, x8, #0x1
1000014e8:	e8 07 00 f9	str	x8, [sp, #0x8]
1000014ec:	d5 ff ff 17	b	0x100001440
1000014f0:	8b 03 00 94	bl	_apple_re_now_ns
1000014f4:	e0 0b 00 f9	str	x0, [sp, #0x10]
1000014f8:	a0 43 5f bc	ldur	s0, [x29, #-0xc]
1000014fc:	00 c0 22 1e	fcvt	d0, s0
100001500:	28 00 00 f0	adrp	x8, 7 ; 0x100008000
100001504:	00 0d 00 fd	str	d0, [x8, #0x18]
100001508:	e8 0b 40 f9	ldr	x8, [sp, #0x10]
10000150c:	e9 0f 40 f9	ldr	x9, [sp, #0x18]
100001510:	00 01 09 eb	subs	x0, x8, x9
100001514:	fd 7b 43 a9	ldp	x29, x30, [sp, #0x30]
100001518:	ff 03 01 91	add	sp, sp, #0x40
10000151c:	c0 03 5f d6	ret
_bench_fadd_f16_dep:
100001520:	ff 03 01 d1	sub	sp, sp, #0x40
100001524:	fd 7b 03 a9	stp	x29, x30, [sp, #0x30]
100001528:	fd c3 00 91	add	x29, sp, #0x30
10000152c:	a0 83 1f f8	stur	x0, [x29, #-0x8]
100001530:		.long	0x1eee1000
100001534:	a0 63 1f 7c	stur	h0, [x29, #-0xa]
100001538:	08 00 00 b0	adrp	x8, 1 ; 0x100002000
10000153c:	00 69 48 7d	ldr	h0, [x8, #0x434]
100001540:	a0 43 1f 7c	stur	h0, [x29, #-0xc]
100001544:	76 03 00 94	bl	_apple_re_now_ns
100001548:	e0 0f 00 f9	str	x0, [sp, #0x18]
10000154c:	ff 07 00 f9	str	xzr, [sp, #0x8]
100001550:	01 00 00 14	b	0x100001554
100001554:	e8 07 40 f9	ldr	x8, [sp, #0x8]
100001558:	a9 83 5f f8	ldur	x9, [x29, #-0x8]
10000155c:	08 01 09 eb	subs	x8, x8, x9
100001560:	62 05 00 54	b.hs	0x10000160c
100001564:	01 00 00 14	b	0x100001568
100001568:	a0 63 5f 7c	ldur	h0, [x29, #-0xa]
10000156c:	08 00 00 b0	adrp	x8, 1 ; 0x100002000
100001570:	01 69 48 7d	ldr	h1, [x8, #0x434]
100001574:		.long	0x1ee12800
100001578:		.long	0x1ee12800
10000157c:		.long	0x1ee12800
100001580:		.long	0x1ee12800
100001584:		.long	0x1ee12800
100001588:		.long	0x1ee12800
10000158c:		.long	0x1ee12800
100001590:		.long	0x1ee12800
100001594:		.long	0x1ee12800
100001598:		.long	0x1ee12800
10000159c:		.long	0x1ee12800
1000015a0:		.long	0x1ee12800
1000015a4:		.long	0x1ee12800
1000015a8:		.long	0x1ee12800
1000015ac:		.long	0x1ee12800
1000015b0:		.long	0x1ee12800
1000015b4:		.long	0x1ee12800
1000015b8:		.long	0x1ee12800
1000015bc:		.long	0x1ee12800
1000015c0:		.long	0x1ee12800
1000015c4:		.long	0x1ee12800
1000015c8:		.long	0x1ee12800
1000015cc:		.long	0x1ee12800
1000015d0:		.long	0x1ee12800
1000015d4:		.long	0x1ee12800
1000015d8:		.long	0x1ee12800
1000015dc:		.long	0x1ee12800
1000015e0:		.long	0x1ee12800
1000015e4:		.long	0x1ee12800
1000015e8:		.long	0x1ee12800
1000015ec:		.long	0x1ee12800
1000015f0:		.long	0x1ee12800
1000015f4:	a0 63 1f 7c	stur	h0, [x29, #-0xa]
1000015f8:	01 00 00 14	b	0x1000015fc
1000015fc:	e8 07 40 f9	ldr	x8, [sp, #0x8]
100001600:	08 05 00 91	add	x8, x8, #0x1
100001604:	e8 07 00 f9	str	x8, [sp, #0x8]
100001608:	d3 ff ff 17	b	0x100001554
10000160c:	44 03 00 94	bl	_apple_re_now_ns
100001610:	e0 0b 00 f9	str	x0, [sp, #0x10]
100001614:	a0 63 5f 7c	ldur	h0, [x29, #-0xa]
100001618:	00 40 e2 1e	fcvt	s0, h0
10000161c:	00 c0 22 1e	fcvt	d0, s0
100001620:	28 00 00 f0	adrp	x8, 7 ; 0x100008000
100001624:	00 0d 00 fd	str	d0, [x8, #0x18]
100001628:	e8 0b 40 f9	ldr	x8, [sp, #0x10]
10000162c:	e9 0f 40 f9	ldr	x9, [sp, #0x18]
100001630:	00 01 09 eb	subs	x0, x8, x9
100001634:	fd 7b 43 a9	ldp	x29, x30, [sp, #0x30]
100001638:	ff 03 01 91	add	sp, sp, #0x40
10000163c:	c0 03 5f d6	ret
_bench_fmla_f16x8_dep:
100001640:	ff 83 06 d1	sub	sp, sp, #0x1a0
100001644:	fc 6f 18 a9	stp	x28, x27, [sp, #0x180]
100001648:	fd 7b 19 a9	stp	x29, x30, [sp, #0x190]
10000164c:	fd 43 06 91	add	x29, sp, #0x190
100001650:	e8 c3 02 91	add	x8, sp, #0xb0
100001654:	e8 03 00 f9	str	x8, [sp]
100001658:	00 65 00 f9	str	x0, [x8, #0xc8]
10000165c:		.long	0x1eee1001
100001660:	a1 e3 1b 7c	stur	h1, [x29, #-0x42]
100001664:	a2 e3 5b 7c	ldur	h2, [x29, #-0x42]
100001668:	43 40 20 1e	fmov	s3, s2
10000166c:	02 1c a0 4e	mov.16b	v2, v0
100001670:	62 04 02 6e	mov.h	v2[0], v3[0]
100001674:	a4 e3 5b 7c	ldur	h4, [x29, #-0x42]
100001678:	83 40 20 1e	fmov	s3, s4
10000167c:	62 04 06 6e	mov.h	v2[1], v3[0]
100001680:	a4 e3 5b 7c	ldur	h4, [x29, #-0x42]
100001684:	83 40 20 1e	fmov	s3, s4
100001688:	62 04 0a 6e	mov.h	v2[2], v3[0]
10000168c:	a4 e3 5b 7c	ldur	h4, [x29, #-0x42]
100001690:	83 40 20 1e	fmov	s3, s4
100001694:	62 04 0e 6e	mov.h	v2[3], v3[0]
100001698:	a4 e3 5b 7c	ldur	h4, [x29, #-0x42]
10000169c:	83 40 20 1e	fmov	s3, s4
1000016a0:	62 04 12 6e	mov.h	v2[4], v3[0]
1000016a4:	a4 e3 5b 7c	ldur	h4, [x29, #-0x42]
1000016a8:	83 40 20 1e	fmov	s3, s4
1000016ac:	62 04 16 6e	mov.h	v2[5], v3[0]
1000016b0:	a4 e3 5b 7c	ldur	h4, [x29, #-0x42]
1000016b4:	83 40 20 1e	fmov	s3, s4
1000016b8:	62 04 1a 6e	mov.h	v2[6], v3[0]
1000016bc:	a4 e3 5b 7c	ldur	h4, [x29, #-0x42]
1000016c0:	83 40 20 1e	fmov	s3, s4
1000016c4:	62 04 1e 6e	mov.h	v2[7], v3[0]
1000016c8:	02 21 80 3d	str	q2, [x8, #0x80]
1000016cc:	02 21 c0 3d	ldr	q2, [x8, #0x80]
1000016d0:	02 29 80 3d	str	q2, [x8, #0xa0]
1000016d4:	02 29 c0 3d	ldr	q2, [x8, #0xa0]
1000016d8:	02 1d 80 3d	str	q2, [x8, #0x70]
1000016dc:	02 1d c0 3d	ldr	q2, [x8, #0x70]
1000016e0:	02 2d 80 3d	str	q2, [x8, #0xb0]
1000016e4:	a9 4b 02 d1	sub	x9, x29, #0x92
1000016e8:	e9 07 00 f9	str	x9, [sp, #0x8]
1000016ec:	a1 e3 16 7c	stur	h1, [x29, #-0x92]
1000016f0:	01 1c a0 4e	mov.16b	v1, v0
1000016f4:	21 41 40 0d	ld1.h	{ v1 }[0], [x9]
1000016f8:	21 49 40 0d	ld1.h	{ v1 }[1], [x9]
1000016fc:	21 51 40 0d	ld1.h	{ v1 }[2], [x9]
100001700:	21 59 40 0d	ld1.h	{ v1 }[3], [x9]
100001704:	21 41 40 4d	ld1.h	{ v1 }[4], [x9]
100001708:	21 49 40 4d	ld1.h	{ v1 }[5], [x9]
10000170c:	21 51 40 4d	ld1.h	{ v1 }[6], [x9]
100001710:	21 59 40 4d	ld1.h	{ v1 }[7], [x9]
100001714:	01 0d 80 3d	str	q1, [x8, #0x30]
100001718:	01 0d c0 3d	ldr	q1, [x8, #0x30]
10000171c:	01 15 80 3d	str	q1, [x8, #0x50]
100001720:	01 15 c0 3d	ldr	q1, [x8, #0x50]
100001724:	01 09 80 3d	str	q1, [x8, #0x20]
100001728:	01 09 c0 3d	ldr	q1, [x8, #0x20]
10000172c:	01 19 80 3d	str	q1, [x8, #0x60]
100001730:	e9 bb 02 91	add	x9, sp, #0xae
100001734:	e9 0b 00 f9	str	x9, [sp, #0x10]
100001738:	0a 00 00 b0	adrp	x10, 1 ; 0x100002000
10000173c:	41 6d 48 7d	ldr	h1, [x10, #0x436]
100001740:	e1 5f 01 7d	str	h1, [sp, #0xae]
100001744:	20 41 40 0d	ld1.h	{ v0 }[0], [x9]
100001748:	20 49 40 0d	ld1.h	{ v0 }[1], [x9]
10000174c:	20 51 40 0d	ld1.h	{ v0 }[2], [x9]
100001750:	20 59 40 0d	ld1.h	{ v0 }[3], [x9]
100001754:	20 41 40 4d	ld1.h	{ v0 }[4], [x9]
100001758:	20 49 40 4d	ld1.h	{ v0 }[5], [x9]
10000175c:	20 51 40 4d	ld1.h	{ v0 }[6], [x9]
100001760:	20 59 40 4d	ld1.h	{ v0 }[7], [x9]
100001764:	e0 27 80 3d	str	q0, [sp, #0x90]
100001768:	e0 27 c0 3d	ldr	q0, [sp, #0x90]
10000176c:	00 01 80 3d	str	q0, [x8]
100001770:	00 01 c0 3d	ldr	q0, [x8]
100001774:	e0 23 80 3d	str	q0, [sp, #0x80]
100001778:	e0 23 c0 3d	ldr	q0, [sp, #0x80]
10000177c:	00 05 80 3d	str	q0, [x8, #0x10]
100001780:	e7 02 00 94	bl	_apple_re_now_ns
100001784:	e0 3f 00 f9	str	x0, [sp, #0x78]
100001788:	ff 37 00 f9	str	xzr, [sp, #0x68]
10000178c:	01 00 00 14	b	0x100001790
100001790:	e9 03 40 f9	ldr	x9, [sp]
100001794:	e8 37 40 f9	ldr	x8, [sp, #0x68]
100001798:	29 65 40 f9	ldr	x9, [x9, #0xc8]
10000179c:	08 01 09 eb	subs	x8, x8, x9
1000017a0:	82 05 00 54	b.hs	0x100001850
1000017a4:	01 00 00 14	b	0x1000017a8
1000017a8:	e8 03 40 f9	ldr	x8, [sp]
1000017ac:	00 2d c0 3d	ldr	q0, [x8, #0xb0]
1000017b0:	01 19 c0 3d	ldr	q1, [x8, #0x60]
1000017b4:	02 05 c0 3d	ldr	q2, [x8, #0x10]
1000017b8:		.long	0x4e420c20
1000017bc:		.long	0x4e420c20
1000017c0:		.long	0x4e420c20
1000017c4:		.long	0x4e420c20
1000017c8:		.long	0x4e420c20
1000017cc:		.long	0x4e420c20
1000017d0:		.long	0x4e420c20
1000017d4:		.long	0x4e420c20
1000017d8:		.long	0x4e420c20
1000017dc:		.long	0x4e420c20
1000017e0:		.long	0x4e420c20
1000017e4:		.long	0x4e420c20
1000017e8:		.long	0x4e420c20
1000017ec:		.long	0x4e420c20
1000017f0:		.long	0x4e420c20
1000017f4:		.long	0x4e420c20
1000017f8:		.long	0x4e420c20
1000017fc:		.long	0x4e420c20
100001800:		.long	0x4e420c20
100001804:		.long	0x4e420c20
100001808:		.long	0x4e420c20
10000180c:		.long	0x4e420c20
100001810:		.long	0x4e420c20
100001814:		.long	0x4e420c20
100001818:		.long	0x4e420c20
10000181c:		.long	0x4e420c20
100001820:		.long	0x4e420c20
100001824:		.long	0x4e420c20
100001828:		.long	0x4e420c20
10000182c:		.long	0x4e420c20
100001830:		.long	0x4e420c20
100001834:		.long	0x4e420c20
100001838:	00 2d 80 3d	str	q0, [x8, #0xb0]
10000183c:	01 00 00 14	b	0x100001840
100001840:	e8 37 40 f9	ldr	x8, [sp, #0x68]
100001844:	08 05 00 91	add	x8, x8, #0x1
100001848:	e8 37 00 f9	str	x8, [sp, #0x68]
10000184c:	d1 ff ff 17	b	0x100001790
100001850:	b3 02 00 94	bl	_apple_re_now_ns
100001854:	e8 03 40 f9	ldr	x8, [sp]
100001858:	e0 3b 00 f9	str	x0, [sp, #0x70]
10000185c:	00 2d c0 3d	ldr	q0, [x8, #0xb0]
100001860:	e0 17 80 3d	str	q0, [sp, #0x50]
100001864:	e0 17 c0 3d	ldr	q0, [sp, #0x50]
100001868:	e0 13 80 3d	str	q0, [sp, #0x40]
10000186c:	e0 13 c0 3d	ldr	q0, [sp, #0x40]
100001870:	e0 0b 80 3d	str	q0, [sp, #0x20]
100001874:	e0 0b c0 3d	ldr	q0, [sp, #0x20]
100001878:	e0 7b 00 7d	str	h0, [sp, #0x3c]
10000187c:	e8 7b 40 79	ldrh	w8, [sp, #0x3c]
100001880:	e8 3f 00 79	strh	w8, [sp, #0x1e]
100001884:	e8 3f 40 79	ldrh	w8, [sp, #0x1e]
100001888:	e8 7f 00 79	strh	w8, [sp, #0x3e]
10000188c:	e0 7f 40 7d	ldr	h0, [sp, #0x3e]
100001890:	e0 cf 00 7d	str	h0, [sp, #0x66]
100001894:	e0 cf 40 7d	ldr	h0, [sp, #0x66]
100001898:	e0 3b 00 7d	str	h0, [sp, #0x1c]
10000189c:	e0 3b 40 7d	ldr	h0, [sp, #0x1c]
1000018a0:	00 40 e2 1e	fcvt	s0, h0
1000018a4:	00 c0 22 1e	fcvt	d0, s0
1000018a8:	28 00 00 f0	adrp	x8, 7 ; 0x100008000
1000018ac:	00 0d 00 fd	str	d0, [x8, #0x18]
1000018b0:	e8 3b 40 f9	ldr	x8, [sp, #0x70]
1000018b4:	e9 3f 40 f9	ldr	x9, [sp, #0x78]
1000018b8:	00 01 09 eb	subs	x0, x8, x9
1000018bc:	fd 7b 59 a9	ldp	x29, x30, [sp, #0x190]
1000018c0:	fc 6f 58 a9	ldp	x28, x27, [sp, #0x180]
1000018c4:	ff 83 06 91	add	sp, sp, #0x1a0
1000018c8:	c0 03 5f d6	ret
_bench_mul_dep:
1000018cc:	ff 43 01 d1	sub	sp, sp, #0x50
1000018d0:	fd 7b 04 a9	stp	x29, x30, [sp, #0x40]
1000018d4:	fd 03 01 91	add	x29, sp, #0x40
1000018d8:	48 28 80 d2	mov	x8, #0x142
1000018dc:	68 f7 a0 f2	movk	x8, #0x7bb, lsl #16
1000018e0:	c8 e5 c4 f2	movk	x8, #0x272e, lsl #32
1000018e4:	48 8c ed f2	movk	x8, #0x6c62, lsl #48
1000018e8:	e8 07 00 f9	str	x8, [sp, #0x8]
1000018ec:	a0 83 1f f8	stur	x0, [x29, #-0x8]
1000018f0:	a9 82 8f d2	mov	x9, #0x7c15
1000018f4:	49 e9 af f2	movk	x9, #0x7f4a, lsl #16
1000018f8:	29 37 cf f2	movk	x9, #0x79b9, lsl #32
1000018fc:	e9 c6 f3 f2	movk	x9, #0x9e37, lsl #48
100001900:	a9 03 1f f8	stur	x9, [x29, #-0x10]
100001904:	a8 83 1e f8	stur	x8, [x29, #-0x18]
100001908:	85 02 00 94	bl	_apple_re_now_ns
10000190c:	e0 13 00 f9	str	x0, [sp, #0x20]
100001910:	ff 0b 00 f9	str	xzr, [sp, #0x10]
100001914:	01 00 00 14	b	0x100001918
100001918:	e8 0b 40 f9	ldr	x8, [sp, #0x10]
10000191c:	a9 83 5f f8	ldur	x9, [x29, #-0x8]
100001920:	08 01 09 eb	subs	x8, x8, x9
100001924:	42 05 00 54	b.hs	0x1000019cc
100001928:	01 00 00 14	b	0x10000192c
10000192c:	e9 07 40 f9	ldr	x9, [sp, #0x8]
100001930:	a8 03 5f f8	ldur	x8, [x29, #-0x10]
100001934:	08 7d 09 9b	mul	x8, x8, x9
100001938:	08 7d 09 9b	mul	x8, x8, x9
10000193c:	08 7d 09 9b	mul	x8, x8, x9
100001940:	08 7d 09 9b	mul	x8, x8, x9
100001944:	08 7d 09 9b	mul	x8, x8, x9
100001948:	08 7d 09 9b	mul	x8, x8, x9
10000194c:	08 7d 09 9b	mul	x8, x8, x9
100001950:	08 7d 09 9b	mul	x8, x8, x9
100001954:	08 7d 09 9b	mul	x8, x8, x9
100001958:	08 7d 09 9b	mul	x8, x8, x9
10000195c:	08 7d 09 9b	mul	x8, x8, x9
100001960:	08 7d 09 9b	mul	x8, x8, x9
100001964:	08 7d 09 9b	mul	x8, x8, x9
100001968:	08 7d 09 9b	mul	x8, x8, x9
10000196c:	08 7d 09 9b	mul	x8, x8, x9
100001970:	08 7d 09 9b	mul	x8, x8, x9
100001974:	08 7d 09 9b	mul	x8, x8, x9
100001978:	08 7d 09 9b	mul	x8, x8, x9
10000197c:	08 7d 09 9b	mul	x8, x8, x9
100001980:	08 7d 09 9b	mul	x8, x8, x9
100001984:	08 7d 09 9b	mul	x8, x8, x9
100001988:	08 7d 09 9b	mul	x8, x8, x9
10000198c:	08 7d 09 9b	mul	x8, x8, x9
100001990:	08 7d 09 9b	mul	x8, x8, x9
100001994:	08 7d 09 9b	mul	x8, x8, x9
100001998:	08 7d 09 9b	mul	x8, x8, x9
10000199c:	08 7d 09 9b	mul	x8, x8, x9
1000019a0:	08 7d 09 9b	mul	x8, x8, x9
1000019a4:	08 7d 09 9b	mul	x8, x8, x9
1000019a8:	08 7d 09 9b	mul	x8, x8, x9
1000019ac:	08 7d 09 9b	mul	x8, x8, x9
1000019b0:	08 7d 09 9b	mul	x8, x8, x9
1000019b4:	a8 03 1f f8	stur	x8, [x29, #-0x10]
1000019b8:	01 00 00 14	b	0x1000019bc
1000019bc:	e8 0b 40 f9	ldr	x8, [sp, #0x10]
1000019c0:	08 05 00 91	add	x8, x8, #0x1
1000019c4:	e8 0b 00 f9	str	x8, [sp, #0x10]
1000019c8:	d4 ff ff 17	b	0x100001918
1000019cc:	54 02 00 94	bl	_apple_re_now_ns
1000019d0:	e0 0f 00 f9	str	x0, [sp, #0x18]
1000019d4:	a8 03 5f f8	ldur	x8, [x29, #-0x10]
1000019d8:	29 00 00 f0	adrp	x9, 7 ; 0x100008000
1000019dc:	28 05 00 f9	str	x8, [x9, #0x8]
1000019e0:	e8 0f 40 f9	ldr	x8, [sp, #0x18]
1000019e4:	e9 13 40 f9	ldr	x9, [sp, #0x20]
1000019e8:	00 01 09 eb	subs	x0, x8, x9
1000019ec:	fd 7b 44 a9	ldp	x29, x30, [sp, #0x40]
1000019f0:	ff 43 01 91	add	sp, sp, #0x50
1000019f4:	c0 03 5f d6	ret
_bench_madd_dep:
1000019f8:	ff 43 01 d1	sub	sp, sp, #0x50
1000019fc:	fd 7b 04 a9	stp	x29, x30, [sp, #0x40]
100001a00:	fd 03 01 91	add	x29, sp, #0x40
100001a04:	48 28 80 d2	mov	x8, #0x142
100001a08:	68 f7 a0 f2	movk	x8, #0x7bb, lsl #16
100001a0c:	c8 e5 c4 f2	movk	x8, #0x272e, lsl #32
100001a10:	48 8c ed f2	movk	x8, #0x6c62, lsl #48
100001a14:	e8 07 00 f9	str	x8, [sp, #0x8]
100001a18:	a0 83 1f f8	stur	x0, [x29, #-0x8]
100001a1c:	a9 82 8f d2	mov	x9, #0x7c15
100001a20:	49 e9 af f2	movk	x9, #0x7f4a, lsl #16
100001a24:	29 37 cf f2	movk	x9, #0x79b9, lsl #32
100001a28:	e9 c6 f3 f2	movk	x9, #0x9e37, lsl #48
100001a2c:	a9 03 1f f8	stur	x9, [x29, #-0x10]
100001a30:	a8 83 1e f8	stur	x8, [x29, #-0x18]
100001a34:	3a 02 00 94	bl	_apple_re_now_ns
100001a38:	e0 13 00 f9	str	x0, [sp, #0x20]
100001a3c:	ff 0b 00 f9	str	xzr, [sp, #0x10]
100001a40:	01 00 00 14	b	0x100001a44
100001a44:	e8 0b 40 f9	ldr	x8, [sp, #0x10]
100001a48:	a9 83 5f f8	ldur	x9, [x29, #-0x8]
100001a4c:	08 01 09 eb	subs	x8, x8, x9
100001a50:	42 05 00 54	b.hs	0x100001af8
100001a54:	01 00 00 14	b	0x100001a58
100001a58:	e9 07 40 f9	ldr	x9, [sp, #0x8]
100001a5c:	a8 03 5f f8	ldur	x8, [x29, #-0x10]
100001a60:	08 21 09 9b	madd	x8, x8, x9, x8
100001a64:	08 21 09 9b	madd	x8, x8, x9, x8
100001a68:	08 21 09 9b	madd	x8, x8, x9, x8
100001a6c:	08 21 09 9b	madd	x8, x8, x9, x8
100001a70:	08 21 09 9b	madd	x8, x8, x9, x8
100001a74:	08 21 09 9b	madd	x8, x8, x9, x8
100001a78:	08 21 09 9b	madd	x8, x8, x9, x8
100001a7c:	08 21 09 9b	madd	x8, x8, x9, x8
100001a80:	08 21 09 9b	madd	x8, x8, x9, x8
100001a84:	08 21 09 9b	madd	x8, x8, x9, x8
100001a88:	08 21 09 9b	madd	x8, x8, x9, x8
100001a8c:	08 21 09 9b	madd	x8, x8, x9, x8
100001a90:	08 21 09 9b	madd	x8, x8, x9, x8
100001a94:	08 21 09 9b	madd	x8, x8, x9, x8
100001a98:	08 21 09 9b	madd	x8, x8, x9, x8
100001a9c:	08 21 09 9b	madd	x8, x8, x9, x8
100001aa0:	08 21 09 9b	madd	x8, x8, x9, x8
100001aa4:	08 21 09 9b	madd	x8, x8, x9, x8
100001aa8:	08 21 09 9b	madd	x8, x8, x9, x8
100001aac:	08 21 09 9b	madd	x8, x8, x9, x8
100001ab0:	08 21 09 9b	madd	x8, x8, x9, x8
100001ab4:	08 21 09 9b	madd	x8, x8, x9, x8
100001ab8:	08 21 09 9b	madd	x8, x8, x9, x8
100001abc:	08 21 09 9b	madd	x8, x8, x9, x8
100001ac0:	08 21 09 9b	madd	x8, x8, x9, x8
100001ac4:	08 21 09 9b	madd	x8, x8, x9, x8
100001ac8:	08 21 09 9b	madd	x8, x8, x9, x8
100001acc:	08 21 09 9b	madd	x8, x8, x9, x8
100001ad0:	08 21 09 9b	madd	x8, x8, x9, x8
100001ad4:	08 21 09 9b	madd	x8, x8, x9, x8
100001ad8:	08 21 09 9b	madd	x8, x8, x9, x8
100001adc:	08 21 09 9b	madd	x8, x8, x9, x8
100001ae0:	a8 03 1f f8	stur	x8, [x29, #-0x10]
100001ae4:	01 00 00 14	b	0x100001ae8
100001ae8:	e8 0b 40 f9	ldr	x8, [sp, #0x10]
100001aec:	08 05 00 91	add	x8, x8, #0x1
100001af0:	e8 0b 00 f9	str	x8, [sp, #0x10]
100001af4:	d4 ff ff 17	b	0x100001a44
100001af8:	09 02 00 94	bl	_apple_re_now_ns
100001afc:	e0 0f 00 f9	str	x0, [sp, #0x18]
100001b00:	a8 03 5f f8	ldur	x8, [x29, #-0x10]
100001b04:	29 00 00 f0	adrp	x9, 7 ; 0x100008000
100001b08:	28 05 00 f9	str	x8, [x9, #0x8]
100001b0c:	e8 0f 40 f9	ldr	x8, [sp, #0x18]
100001b10:	e9 13 40 f9	ldr	x9, [sp, #0x20]
100001b14:	00 01 09 eb	subs	x0, x8, x9
100001b18:	fd 7b 44 a9	ldp	x29, x30, [sp, #0x40]
100001b1c:	ff 43 01 91	add	sp, sp, #0x50
100001b20:	c0 03 5f d6	ret
_bench_msub_dep:
100001b24:	ff 03 01 d1	sub	sp, sp, #0x40
100001b28:	fd 7b 03 a9	stp	x29, x30, [sp, #0x30]
100001b2c:	fd c3 00 91	add	x29, sp, #0x30
100001b30:	a0 83 1f f8	stur	x0, [x29, #-0x8]
100001b34:	a8 82 8f d2	mov	x8, #0x7c15
100001b38:	48 e9 af f2	movk	x8, #0x7f4a, lsl #16
100001b3c:	28 37 cf f2	movk	x8, #0x79b9, lsl #32
100001b40:	e8 c6 f3 f2	movk	x8, #0x9e37, lsl #48
100001b44:	a8 03 1f f8	stur	x8, [x29, #-0x10]
100001b48:	68 00 80 d2	mov	x8, #0x3
100001b4c:	e8 0f 00 f9	str	x8, [sp, #0x18]
100001b50:	f3 01 00 94	bl	_apple_re_now_ns
100001b54:	e0 0b 00 f9	str	x0, [sp, #0x10]
100001b58:	ff 03 00 f9	str	xzr, [sp]
100001b5c:	01 00 00 14	b	0x100001b60
100001b60:	e8 03 40 f9	ldr	x8, [sp]
100001b64:	a9 83 5f f8	ldur	x9, [x29, #-0x8]
100001b68:	08 01 09 eb	subs	x8, x8, x9
100001b6c:	42 05 00 54	b.hs	0x100001c14
100001b70:	01 00 00 14	b	0x100001b74
100001b74:	a8 03 5f f8	ldur	x8, [x29, #-0x10]
100001b78:	69 00 80 d2	mov	x9, #0x3
100001b7c:	08 a1 09 9b	msub	x8, x8, x9, x8
100001b80:	08 a1 09 9b	msub	x8, x8, x9, x8
100001b84:	08 a1 09 9b	msub	x8, x8, x9, x8
100001b88:	08 a1 09 9b	msub	x8, x8, x9, x8
100001b8c:	08 a1 09 9b	msub	x8, x8, x9, x8
100001b90:	08 a1 09 9b	msub	x8, x8, x9, x8
100001b94:	08 a1 09 9b	msub	x8, x8, x9, x8
100001b98:	08 a1 09 9b	msub	x8, x8, x9, x8
100001b9c:	08 a1 09 9b	msub	x8, x8, x9, x8
100001ba0:	08 a1 09 9b	msub	x8, x8, x9, x8
100001ba4:	08 a1 09 9b	msub	x8, x8, x9, x8
100001ba8:	08 a1 09 9b	msub	x8, x8, x9, x8
100001bac:	08 a1 09 9b	msub	x8, x8, x9, x8
100001bb0:	08 a1 09 9b	msub	x8, x8, x9, x8
100001bb4:	08 a1 09 9b	msub	x8, x8, x9, x8
100001bb8:	08 a1 09 9b	msub	x8, x8, x9, x8
100001bbc:	08 a1 09 9b	msub	x8, x8, x9, x8
100001bc0:	08 a1 09 9b	msub	x8, x8, x9, x8
100001bc4:	08 a1 09 9b	msub	x8, x8, x9, x8
100001bc8:	08 a1 09 9b	msub	x8, x8, x9, x8
100001bcc:	08 a1 09 9b	msub	x8, x8, x9, x8
100001bd0:	08 a1 09 9b	msub	x8, x8, x9, x8
100001bd4:	08 a1 09 9b	msub	x8, x8, x9, x8
100001bd8:	08 a1 09 9b	msub	x8, x8, x9, x8
100001bdc:	08 a1 09 9b	msub	x8, x8, x9, x8
100001be0:	08 a1 09 9b	msub	x8, x8, x9, x8
100001be4:	08 a1 09 9b	msub	x8, x8, x9, x8
100001be8:	08 a1 09 9b	msub	x8, x8, x9, x8
100001bec:	08 a1 09 9b	msub	x8, x8, x9, x8
100001bf0:	08 a1 09 9b	msub	x8, x8, x9, x8
100001bf4:	08 a1 09 9b	msub	x8, x8, x9, x8
100001bf8:	08 a1 09 9b	msub	x8, x8, x9, x8
100001bfc:	a8 03 1f f8	stur	x8, [x29, #-0x10]
100001c00:	01 00 00 14	b	0x100001c04
100001c04:	e8 03 40 f9	ldr	x8, [sp]
100001c08:	08 05 00 91	add	x8, x8, #0x1
100001c0c:	e8 03 00 f9	str	x8, [sp]
100001c10:	d4 ff ff 17	b	0x100001b60
100001c14:	c2 01 00 94	bl	_apple_re_now_ns
100001c18:	e0 07 00 f9	str	x0, [sp, #0x8]
100001c1c:	a8 03 5f f8	ldur	x8, [x29, #-0x10]
100001c20:	29 00 00 f0	adrp	x9, 7 ; 0x100008000
100001c24:	28 05 00 f9	str	x8, [x9, #0x8]
100001c28:	e8 07 40 f9	ldr	x8, [sp, #0x8]
100001c2c:	e9 0b 40 f9	ldr	x9, [sp, #0x10]
100001c30:	00 01 09 eb	subs	x0, x8, x9
100001c34:	fd 7b 43 a9	ldp	x29, x30, [sp, #0x30]
100001c38:	ff 03 01 91	add	sp, sp, #0x40
100001c3c:	c0 03 5f d6	ret
_bench_umulh_dep:
100001c40:	ff 43 01 d1	sub	sp, sp, #0x50
100001c44:	fd 7b 04 a9	stp	x29, x30, [sp, #0x40]
100001c48:	fd 03 01 91	add	x29, sp, #0x40
100001c4c:	28 b7 9c d2	mov	x8, #0xe5b9
100001c50:	88 9c a3 f2	movk	x8, #0x1ce4, lsl #16
100001c54:	a8 ed c8 f2	movk	x8, #0x476d, lsl #32
100001c58:	08 eb f7 f2	movk	x8, #0xbf58, lsl #48
100001c5c:	e8 07 00 f9	str	x8, [sp, #0x8]
100001c60:	a0 83 1f f8	stur	x0, [x29, #-0x8]
100001c64:	a9 82 8f d2	mov	x9, #0x7c15
100001c68:	49 e9 af f2	movk	x9, #0x7f4a, lsl #16
100001c6c:	29 37 cf f2	movk	x9, #0x79b9, lsl #32
100001c70:	e9 c6 f3 f2	movk	x9, #0x9e37, lsl #48
100001c74:	a9 03 1f f8	stur	x9, [x29, #-0x10]
100001c78:	a8 83 1e f8	stur	x8, [x29, #-0x18]
100001c7c:	a8 01 00 94	bl	_apple_re_now_ns
100001c80:	e0 13 00 f9	str	x0, [sp, #0x20]
100001c84:	ff 0b 00 f9	str	xzr, [sp, #0x10]
100001c88:	01 00 00 14	b	0x100001c8c
100001c8c:	e8 0b 40 f9	ldr	x8, [sp, #0x10]
100001c90:	a9 83 5f f8	ldur	x9, [x29, #-0x8]
100001c94:	08 01 09 eb	subs	x8, x8, x9
100001c98:	42 05 00 54	b.hs	0x100001d40
100001c9c:	01 00 00 14	b	0x100001ca0
100001ca0:	e9 07 40 f9	ldr	x9, [sp, #0x8]
100001ca4:	a8 03 5f f8	ldur	x8, [x29, #-0x10]
100001ca8:	08 7d c9 9b	umulh	x8, x8, x9
100001cac:	08 7d c9 9b	umulh	x8, x8, x9
100001cb0:	08 7d c9 9b	umulh	x8, x8, x9
100001cb4:	08 7d c9 9b	umulh	x8, x8, x9
100001cb8:	08 7d c9 9b	umulh	x8, x8, x9
100001cbc:	08 7d c9 9b	umulh	x8, x8, x9
100001cc0:	08 7d c9 9b	umulh	x8, x8, x9
100001cc4:	08 7d c9 9b	umulh	x8, x8, x9
100001cc8:	08 7d c9 9b	umulh	x8, x8, x9
100001ccc:	08 7d c9 9b	umulh	x8, x8, x9
100001cd0:	08 7d c9 9b	umulh	x8, x8, x9
100001cd4:	08 7d c9 9b	umulh	x8, x8, x9
100001cd8:	08 7d c9 9b	umulh	x8, x8, x9
100001cdc:	08 7d c9 9b	umulh	x8, x8, x9
100001ce0:	08 7d c9 9b	umulh	x8, x8, x9
100001ce4:	08 7d c9 9b	umulh	x8, x8, x9
100001ce8:	08 7d c9 9b	umulh	x8, x8, x9
100001cec:	08 7d c9 9b	umulh	x8, x8, x9
100001cf0:	08 7d c9 9b	umulh	x8, x8, x9
100001cf4:	08 7d c9 9b	umulh	x8, x8, x9
100001cf8:	08 7d c9 9b	umulh	x8, x8, x9
100001cfc:	08 7d c9 9b	umulh	x8, x8, x9
100001d00:	08 7d c9 9b	umulh	x8, x8, x9
100001d04:	08 7d c9 9b	umulh	x8, x8, x9
100001d08:	08 7d c9 9b	umulh	x8, x8, x9
100001d0c:	08 7d c9 9b	umulh	x8, x8, x9
100001d10:	08 7d c9 9b	umulh	x8, x8, x9
100001d14:	08 7d c9 9b	umulh	x8, x8, x9
100001d18:	08 7d c9 9b	umulh	x8, x8, x9
100001d1c:	08 7d c9 9b	umulh	x8, x8, x9
100001d20:	08 7d c9 9b	umulh	x8, x8, x9
100001d24:	08 7d c9 9b	umulh	x8, x8, x9
100001d28:	a8 03 1f f8	stur	x8, [x29, #-0x10]
100001d2c:	01 00 00 14	b	0x100001d30
100001d30:	e8 0b 40 f9	ldr	x8, [sp, #0x10]
100001d34:	08 05 00 91	add	x8, x8, #0x1
100001d38:	e8 0b 00 f9	str	x8, [sp, #0x10]
100001d3c:	d4 ff ff 17	b	0x100001c8c
100001d40:	77 01 00 94	bl	_apple_re_now_ns
100001d44:	e0 0f 00 f9	str	x0, [sp, #0x18]
100001d48:	a8 03 5f f8	ldur	x8, [x29, #-0x10]
100001d4c:	29 00 00 f0	adrp	x9, 7 ; 0x100008000
100001d50:	28 05 00 f9	str	x8, [x9, #0x8]
100001d54:	e8 0f 40 f9	ldr	x8, [sp, #0x18]
100001d58:	e9 13 40 f9	ldr	x9, [sp, #0x20]
100001d5c:	00 01 09 eb	subs	x0, x8, x9
100001d60:	fd 7b 44 a9	ldp	x29, x30, [sp, #0x40]
100001d64:	ff 43 01 91	add	sp, sp, #0x50
100001d68:	c0 03 5f d6	ret
_bench_smull_dep:
100001d6c:	ff 03 01 d1	sub	sp, sp, #0x40
100001d70:	fd 7b 03 a9	stp	x29, x30, [sp, #0x30]
100001d74:	fd c3 00 91	add	x29, sp, #0x30
100001d78:	a0 83 1f f8	stur	x0, [x29, #-0x8]
100001d7c:	28 37 8f d2	mov	x8, #0x79b9
100001d80:	e8 c6 b3 f2	movk	x8, #0x9e37, lsl #16
100001d84:	a8 03 1f f8	stur	x8, [x29, #-0x10]
100001d88:	c8 e5 84 d2	mov	x8, #0x272e
100001d8c:	48 8c ad f2	movk	x8, #0x6c62, lsl #16
100001d90:	e8 0f 00 f9	str	x8, [sp, #0x18]
100001d94:	62 01 00 94	bl	_apple_re_now_ns
100001d98:	e0 0b 00 f9	str	x0, [sp, #0x10]
100001d9c:	ff 03 00 f9	str	xzr, [sp]
100001da0:	01 00 00 14	b	0x100001da4
100001da4:	e8 03 40 f9	ldr	x8, [sp]
100001da8:	a9 83 5f f8	ldur	x9, [x29, #-0x8]
100001dac:	08 01 09 eb	subs	x8, x8, x9
100001db0:	62 05 00 54	b.hs	0x100001e5c
100001db4:	01 00 00 14	b	0x100001db8
100001db8:	a8 03 5f f8	ldur	x8, [x29, #-0x10]
100001dbc:	c9 e5 84 d2	mov	x9, #0x272e
100001dc0:	49 8c ad f2	movk	x9, #0x6c62, lsl #16
100001dc4:	08 7d 29 9b	smull	x8, w8, w9
100001dc8:	08 7d 29 9b	smull	x8, w8, w9
100001dcc:	08 7d 29 9b	smull	x8, w8, w9
100001dd0:	08 7d 29 9b	smull	x8, w8, w9
100001dd4:	08 7d 29 9b	smull	x8, w8, w9
100001dd8:	08 7d 29 9b	smull	x8, w8, w9
100001ddc:	08 7d 29 9b	smull	x8, w8, w9
100001de0:	08 7d 29 9b	smull	x8, w8, w9
100001de4:	08 7d 29 9b	smull	x8, w8, w9
100001de8:	08 7d 29 9b	smull	x8, w8, w9
100001dec:	08 7d 29 9b	smull	x8, w8, w9
100001df0:	08 7d 29 9b	smull	x8, w8, w9
100001df4:	08 7d 29 9b	smull	x8, w8, w9
100001df8:	08 7d 29 9b	smull	x8, w8, w9
100001dfc:	08 7d 29 9b	smull	x8, w8, w9
100001e00:	08 7d 29 9b	smull	x8, w8, w9
100001e04:	08 7d 29 9b	smull	x8, w8, w9
100001e08:	08 7d 29 9b	smull	x8, w8, w9
100001e0c:	08 7d 29 9b	smull	x8, w8, w9
100001e10:	08 7d 29 9b	smull	x8, w8, w9
100001e14:	08 7d 29 9b	smull	x8, w8, w9
100001e18:	08 7d 29 9b	smull	x8, w8, w9
100001e1c:	08 7d 29 9b	smull	x8, w8, w9
100001e20:	08 7d 29 9b	smull	x8, w8, w9
100001e24:	08 7d 29 9b	smull	x8, w8, w9
100001e28:	08 7d 29 9b	smull	x8, w8, w9
100001e2c:	08 7d 29 9b	smull	x8, w8, w9
100001e30:	08 7d 29 9b	smull	x8, w8, w9
100001e34:	08 7d 29 9b	smull	x8, w8, w9
100001e38:	08 7d 29 9b	smull	x8, w8, w9
100001e3c:	08 7d 29 9b	smull	x8, w8, w9
100001e40:	08 7d 29 9b	smull	x8, w8, w9
100001e44:	a8 03 1f f8	stur	x8, [x29, #-0x10]
100001e48:	01 00 00 14	b	0x100001e4c
100001e4c:	e8 03 40 f9	ldr	x8, [sp]
100001e50:	08 05 00 91	add	x8, x8, #0x1
100001e54:	e8 03 00 f9	str	x8, [sp]
100001e58:	d3 ff ff 17	b	0x100001da4
100001e5c:	30 01 00 94	bl	_apple_re_now_ns
100001e60:	e0 07 00 f9	str	x0, [sp, #0x8]
100001e64:	a8 03 5f f8	ldur	x8, [x29, #-0x10]
100001e68:	29 00 00 f0	adrp	x9, 7 ; 0x100008000
100001e6c:	28 05 00 f9	str	x8, [x9, #0x8]
100001e70:	e8 07 40 f9	ldr	x8, [sp, #0x8]
100001e74:	e9 0b 40 f9	ldr	x9, [sp, #0x10]
100001e78:	00 01 09 eb	subs	x0, x8, x9
100001e7c:	fd 7b 43 a9	ldp	x29, x30, [sp, #0x30]
100001e80:	ff 03 01 91	add	sp, sp, #0x40
100001e84:	c0 03 5f d6	ret
_bench_load_store_chain:
100001e88:	ff c3 05 d1	sub	sp, sp, #0x170
100001e8c:	fc 6f 15 a9	stp	x28, x27, [sp, #0x150]
100001e90:	fd 7b 16 a9	stp	x29, x30, [sp, #0x160]
100001e94:	fd 83 05 91	add	x29, sp, #0x160
100001e98:	08 00 00 f0	adrp	x8, 3 ; 0x100004000
100001e9c:	08 19 40 f9	ldr	x8, [x8, #0x30] ; literal pool symbol address: ___stack_chk_guard
100001ea0:	08 01 40 f9	ldr	x8, [x8]
100001ea4:	a8 83 1e f8	stur	x8, [x29, #-0x18]
100001ea8:	e0 23 00 f9	str	x0, [sp, #0x40]
100001eac:	a8 82 8f d2	mov	x8, #0x7c15
100001eb0:	48 e9 af f2	movk	x8, #0x7f4a, lsl #16
100001eb4:	28 37 cf f2	movk	x8, #0x79b9, lsl #32
100001eb8:	e8 c6 f3 f2	movk	x8, #0x9e37, lsl #48
100001ebc:	e8 1f 00 f9	str	x8, [sp, #0x38]
100001ec0:	ff 27 00 b9	str	wzr, [sp, #0x24]
100001ec4:	01 00 00 14	b	0x100001ec8
100001ec8:	e8 27 40 b9	ldr	w8, [sp, #0x24]
100001ecc:	08 81 00 71	subs	w8, w8, #0x20
100001ed0:	c2 01 00 54	b.hs	0x100001f08
100001ed4:	01 00 00 14	b	0x100001ed8
100001ed8:	e8 27 40 b9	ldr	w8, [sp, #0x24]
100001edc:	08 05 00 11	add	w8, w8, #0x1
100001ee0:	e8 03 08 2a	mov	w8, w8
100001ee4:	e9 27 40 b9	ldr	w9, [sp, #0x24]
100001ee8:	ea 03 09 aa	mov	x10, x9
100001eec:	e9 23 01 91	add	x9, sp, #0x48
100001ef0:	28 79 2a f8	str	x8, [x9, x10, lsl #3]
100001ef4:	01 00 00 14	b	0x100001ef8
100001ef8:	e8 27 40 b9	ldr	w8, [sp, #0x24]
100001efc:	08 05 00 11	add	w8, w8, #0x1
100001f00:	e8 27 00 b9	str	w8, [sp, #0x24]
100001f04:	f1 ff ff 17	b	0x100001ec8
100001f08:	05 01 00 94	bl	_apple_re_now_ns
100001f0c:	e0 1b 00 f9	str	x0, [sp, #0x30]
100001f10:	ff 0f 00 f9	str	xzr, [sp, #0x18]
100001f14:	01 00 00 14	b	0x100001f18
100001f18:	e8 0f 40 f9	ldr	x8, [sp, #0x18]
100001f1c:	e9 23 40 f9	ldr	x9, [sp, #0x40]
100001f20:	08 01 09 eb	subs	x8, x8, x9
100001f24:	c2 04 00 54	b.hs	0x100001fbc
100001f28:	01 00 00 14	b	0x100001f2c
100001f2c:	ff 17 00 b9	str	wzr, [sp, #0x14]
100001f30:	01 00 00 14	b	0x100001f34
100001f34:	e8 17 40 b9	ldr	w8, [sp, #0x14]
100001f38:	08 81 00 71	subs	w8, w8, #0x20
100001f3c:	62 03 00 54	b.hs	0x100001fa8
100001f40:	01 00 00 14	b	0x100001f44
100001f44:	e8 17 40 b9	ldr	w8, [sp, #0x14]
100001f48:	e9 23 01 91	add	x9, sp, #0x48
100001f4c:	28 79 68 f8	ldr	x8, [x9, x8, lsl #3]
100001f50:	e8 07 00 f9	str	x8, [sp, #0x8]
100001f54:	e8 07 40 f9	ldr	x8, [sp, #0x8]
100001f58:	ea 17 40 b9	ldr	w10, [sp, #0x14]
100001f5c:	0a 01 0a 8b	add	x10, x8, x10
100001f60:	e8 1f 40 f9	ldr	x8, [sp, #0x38]
100001f64:	08 01 0a ca	eor	x8, x8, x10
100001f68:	e8 1f 00 f9	str	x8, [sp, #0x38]
100001f6c:	ea 1f 40 f9	ldr	x10, [sp, #0x38]
100001f70:	e8 1f 40 f9	ldr	x8, [sp, #0x38]
100001f74:	08 fd 7f d3	lsr	x8, x8, #63
100001f78:	08 05 0a aa	orr	x8, x8, x10, lsl #1
100001f7c:	e8 1f 00 f9	str	x8, [sp, #0x38]
100001f80:	e8 1f 40 f9	ldr	x8, [sp, #0x38]
100001f84:	ea 07 40 f9	ldr	x10, [sp, #0x8]
100001f88:	08 01 0a 8b	add	x8, x8, x10
100001f8c:	ea 17 40 b9	ldr	w10, [sp, #0x14]
100001f90:	28 79 2a f8	str	x8, [x9, x10, lsl #3]
100001f94:	01 00 00 14	b	0x100001f98
100001f98:	e8 17 40 b9	ldr	w8, [sp, #0x14]
100001f9c:	08 05 00 11	add	w8, w8, #0x1
100001fa0:	e8 17 00 b9	str	w8, [sp, #0x14]
100001fa4:	e4 ff ff 17	b	0x100001f34
100001fa8:	01 00 00 14	b	0x100001fac
100001fac:	e8 0f 40 f9	ldr	x8, [sp, #0x18]
100001fb0:	08 05 00 91	add	x8, x8, #0x1
100001fb4:	e8 0f 00 f9	str	x8, [sp, #0x18]
100001fb8:	d8 ff ff 17	b	0x100001f18
100001fbc:	d8 00 00 94	bl	_apple_re_now_ns
100001fc0:	e0 17 00 f9	str	x0, [sp, #0x28]
100001fc4:	e8 1f 40 f9	ldr	x8, [sp, #0x38]
100001fc8:	e9 1f 40 f9	ldr	x9, [sp, #0x38]
100001fcc:	2a 11 40 92	and	x10, x9, #0x1f
100001fd0:	e9 23 01 91	add	x9, sp, #0x48
100001fd4:	29 79 6a f8	ldr	x9, [x9, x10, lsl #3]
100001fd8:	08 01 09 ca	eor	x8, x8, x9
100001fdc:	29 00 00 f0	adrp	x9, 7 ; 0x100008000
100001fe0:	28 05 00 f9	str	x8, [x9, #0x8]
100001fe4:	e8 17 40 f9	ldr	x8, [sp, #0x28]
100001fe8:	e9 1b 40 f9	ldr	x9, [sp, #0x30]
100001fec:	08 01 09 eb	subs	x8, x8, x9
100001ff0:	e8 03 00 f9	str	x8, [sp]
100001ff4:	a9 83 5e f8	ldur	x9, [x29, #-0x18]
100001ff8:	08 00 00 f0	adrp	x8, 3 ; 0x100004000
100001ffc:	08 19 40 f9	ldr	x8, [x8, #0x30] ; literal pool symbol address: ___stack_chk_guard
100002000:	08 01 40 f9	ldr	x8, [x8]
100002004:	08 01 09 eb	subs	x8, x8, x9
100002008:	60 00 00 54	b.eq	0x100002014
10000200c:	01 00 00 14	b	0x100002010
100002010:	fa 00 00 94	bl	0x1000023f8 ; symbol stub for: ___stack_chk_fail
100002014:	e0 03 40 f9	ldr	x0, [sp]
100002018:	fd 7b 56 a9	ldp	x29, x30, [sp, #0x160]
10000201c:	fc 6f 55 a9	ldp	x28, x27, [sp, #0x150]
100002020:	ff c3 05 91	add	sp, sp, #0x170
100002024:	c0 03 5f d6	ret
_bench_shuffle_dep:
100002028:	ff 43 01 d1	sub	sp, sp, #0x50
10000202c:	fd 7b 04 a9	stp	x29, x30, [sp, #0x40]
100002030:	fd 03 01 91	add	x29, sp, #0x40
100002034:	a0 83 1f f8	stur	x0, [x29, #-0x8]
100002038:	e8 bd 99 d2	mov	x8, #0xcdef
10000203c:	68 35 b1 f2	movk	x8, #0x89ab, lsl #16
100002040:	e8 ac c8 f2	movk	x8, #0x4567, lsl #32
100002044:	68 24 e0 f2	movk	x8, #0x123, lsl #48
100002048:	a8 03 1f f8	stur	x8, [x29, #-0x10]
10000204c:	b4 00 00 94	bl	_apple_re_now_ns
100002050:	a0 83 1e f8	stur	x0, [x29, #-0x18]
100002054:	ff 0f 00 f9	str	xzr, [sp, #0x18]
100002058:	01 00 00 14	b	0x10000205c
10000205c:	e8 0f 40 f9	ldr	x8, [sp, #0x18]
100002060:	a9 83 5f f8	ldur	x9, [x29, #-0x8]
100002064:	08 01 09 eb	subs	x8, x8, x9
100002068:	82 05 00 54	b.hs	0x100002118
10000206c:	01 00 00 14	b	0x100002070
100002070:	ff 17 00 b9	str	wzr, [sp, #0x14]
100002074:	01 00 00 14	b	0x100002078
100002078:	e8 17 40 b9	ldr	w8, [sp, #0x14]
10000207c:	08 81 00 71	subs	w8, w8, #0x20
100002080:	22 04 00 54	b.hs	0x100002104
100002084:	01 00 00 14	b	0x100002088
100002088:	a8 03 5f f8	ldur	x8, [x29, #-0x10]
10000208c:	e9 17 40 b9	ldr	w9, [sp, #0x14]
100002090:	aa 82 8f d2	mov	x10, #0x7c15
100002094:	4a e9 af f2	movk	x10, #0x7f4a, lsl #16
100002098:	2a 37 cf f2	movk	x10, #0x79b9, lsl #32
10000209c:	ea c6 f3 f2	movk	x10, #0x9e37, lsl #48
1000020a0:	29 7d 0a 9b	mul	x9, x9, x10
1000020a4:	08 01 09 ca	eor	x8, x8, x9
1000020a8:	e8 07 00 f9	str	x8, [sp, #0x8]
1000020ac:	e8 17 40 b9	ldr	w8, [sp, #0x14]
1000020b0:	08 0d 00 12	and	w8, w8, #0xf
1000020b4:	08 05 00 11	add	w8, w8, #0x1
1000020b8:	e8 07 00 b9	str	w8, [sp, #0x4]
1000020bc:	e8 07 40 f9	ldr	x8, [sp, #0x8]
1000020c0:	e9 07 40 b9	ldr	w9, [sp, #0x4]
1000020c4:	08 25 c9 9a	lsr	x8, x8, x9
1000020c8:	e9 07 40 f9	ldr	x9, [sp, #0x8]
1000020cc:	eb 07 40 b9	ldr	w11, [sp, #0x4]
1000020d0:	0a 08 80 52	mov	w10, #0x40
1000020d4:	4a 01 0b 6b	subs	w10, w10, w11
1000020d8:	29 21 ca 9a	lsl	x9, x9, x10
1000020dc:	08 01 09 aa	orr	x8, x8, x9
1000020e0:	e8 07 00 f9	str	x8, [sp, #0x8]
1000020e4:	e8 07 40 f9	ldr	x8, [sp, #0x8]
1000020e8:	08 0d c0 da	rev	x8, x8
1000020ec:	a8 03 1f f8	stur	x8, [x29, #-0x10]
1000020f0:	01 00 00 14	b	0x1000020f4
1000020f4:	e8 17 40 b9	ldr	w8, [sp, #0x14]
1000020f8:	08 05 00 11	add	w8, w8, #0x1
1000020fc:	e8 17 00 b9	str	w8, [sp, #0x14]
100002100:	de ff ff 17	b	0x100002078
100002104:	01 00 00 14	b	0x100002108
100002108:	e8 0f 40 f9	ldr	x8, [sp, #0x18]
10000210c:	08 05 00 91	add	x8, x8, #0x1
100002110:	e8 0f 00 f9	str	x8, [sp, #0x18]
100002114:	d2 ff ff 17	b	0x10000205c
100002118:	81 00 00 94	bl	_apple_re_now_ns
10000211c:	e0 13 00 f9	str	x0, [sp, #0x20]
100002120:	a8 03 5f f8	ldur	x8, [x29, #-0x10]
100002124:	29 00 00 d0	adrp	x9, 6 ; 0x100008000
100002128:	28 05 00 f9	str	x8, [x9, #0x8]
10000212c:	e8 13 40 f9	ldr	x8, [sp, #0x20]
100002130:	a9 83 5e f8	ldur	x9, [x29, #-0x18]
100002134:	00 01 09 eb	subs	x0, x8, x9
100002138:	fd 7b 44 a9	ldp	x29, x30, [sp, #0x40]
10000213c:	ff 43 01 91	add	sp, sp, #0x50
100002140:	c0 03 5f d6	ret
_bench_atomic_add_dep:
100002144:	ff 83 01 d1	sub	sp, sp, #0x60
100002148:	fd 7b 05 a9	stp	x29, x30, [sp, #0x50]
10000214c:	fd 43 01 91	add	x29, sp, #0x50
100002150:	a0 83 1f f8	stur	x0, [x29, #-0x8]
100002154:	bf 03 1f f8	stur	xzr, [x29, #-0x10]
100002158:	28 00 80 d2	mov	x8, #0x1
10000215c:	e8 17 00 f9	str	x8, [sp, #0x28]
100002160:	e8 17 40 f9	ldr	x8, [sp, #0x28]
100002164:	29 00 00 d0	adrp	x9, 6 ; 0x100008000
100002168:	28 01 00 f9	str	x8, [x9]
10000216c:	6c 00 00 94	bl	_apple_re_now_ns
100002170:	a0 83 1e f8	stur	x0, [x29, #-0x18]
100002174:	ff 13 00 f9	str	xzr, [sp, #0x20]
100002178:	01 00 00 14	b	0x10000217c
10000217c:	e8 13 40 f9	ldr	x8, [sp, #0x20]
100002180:	a9 83 5f f8	ldur	x9, [x29, #-0x8]
100002184:	08 01 09 eb	subs	x8, x8, x9
100002188:	62 03 00 54	b.hs	0x1000021f4
10000218c:	01 00 00 14	b	0x100002190
100002190:	ff 1f 00 b9	str	wzr, [sp, #0x1c]
100002194:	01 00 00 14	b	0x100002198
100002198:	e8 1f 40 b9	ldr	w8, [sp, #0x1c]
10000219c:	08 81 00 71	subs	w8, w8, #0x20
1000021a0:	02 02 00 54	b.hs	0x1000021e0
1000021a4:	01 00 00 14	b	0x1000021a8
1000021a8:	28 00 80 d2	mov	x8, #0x1
1000021ac:	e8 0b 00 f9	str	x8, [sp, #0x10]
1000021b0:	e8 0b 40 f9	ldr	x8, [sp, #0x10]
1000021b4:	29 00 00 d0	adrp	x9, 6 ; 0x100008000
1000021b8:	29 01 00 91	add	x9, x9, #0x0
1000021bc:		.long	0xf8280128
1000021c0:	e8 07 00 f9	str	x8, [sp, #0x8]
1000021c4:	e8 07 40 f9	ldr	x8, [sp, #0x8]
1000021c8:	a8 03 1f f8	stur	x8, [x29, #-0x10]
1000021cc:	01 00 00 14	b	0x1000021d0
1000021d0:	e8 1f 40 b9	ldr	w8, [sp, #0x1c]
1000021d4:	08 05 00 11	add	w8, w8, #0x1
1000021d8:	e8 1f 00 b9	str	w8, [sp, #0x1c]
1000021dc:	ef ff ff 17	b	0x100002198
1000021e0:	01 00 00 14	b	0x1000021e4
1000021e4:	e8 13 40 f9	ldr	x8, [sp, #0x20]
1000021e8:	08 05 00 91	add	x8, x8, #0x1
1000021ec:	e8 13 00 f9	str	x8, [sp, #0x20]
1000021f0:	e3 ff ff 17	b	0x10000217c
1000021f4:	4a 00 00 94	bl	_apple_re_now_ns
1000021f8:	a0 03 1e f8	stur	x0, [x29, #-0x20]
1000021fc:	a8 03 5f f8	ldur	x8, [x29, #-0x10]
100002200:	29 00 00 d0	adrp	x9, 6 ; 0x100008000
100002204:	28 05 00 f9	str	x8, [x9, #0x8]
100002208:	a8 03 5e f8	ldur	x8, [x29, #-0x20]
10000220c:	a9 83 5e f8	ldur	x9, [x29, #-0x18]
100002210:	00 01 09 eb	subs	x0, x8, x9
100002214:	fd 7b 45 a9	ldp	x29, x30, [sp, #0x50]
100002218:	ff 83 01 91	add	sp, sp, #0x60
10000221c:	c0 03 5f d6	ret
_bench_transcendental_dep:
100002220:	ff 43 01 d1	sub	sp, sp, #0x50
100002224:	fd 7b 04 a9	stp	x29, x30, [sp, #0x40]
100002228:	fd 03 01 91	add	x29, sp, #0x40
10000222c:	a0 83 1f f8	stur	x0, [x29, #-0x8]
100002230:	e8 6b 8c d2	mov	x8, #0x635f
100002234:	28 e7 a6 f2	movk	x8, #0x3739, lsl #16
100002238:	a8 5b d3 f2	movk	x8, #0x9add, lsl #32
10000223c:	e8 f7 e7 f2	movk	x8, #0x3fbf, lsl #48
100002240:	00 01 67 9e	fmov	d0, x8
100002244:	a0 03 1f fc	stur	d0, [x29, #-0x10]
100002248:	35 00 00 94	bl	_apple_re_now_ns
10000224c:	a0 83 1e f8	stur	x0, [x29, #-0x18]
100002250:	ff 0f 00 f9	str	xzr, [sp, #0x18]
100002254:	01 00 00 14	b	0x100002258
100002258:	e8 0f 40 f9	ldr	x8, [sp, #0x18]
10000225c:	a9 83 5f f8	ldur	x9, [x29, #-0x8]
100002260:	08 01 09 eb	subs	x8, x8, x9
100002264:	62 04 00 54	b.hs	0x1000022f0
100002268:	01 00 00 14	b	0x10000226c
10000226c:	ff 17 00 b9	str	wzr, [sp, #0x14]
100002270:	01 00 00 14	b	0x100002274
100002274:	e8 17 40 b9	ldr	w8, [sp, #0x14]
100002278:	08 11 00 71	subs	w8, w8, #0x4
10000227c:	02 03 00 54	b.hs	0x1000022dc
100002280:	01 00 00 14	b	0x100002284
100002284:	a2 03 5f fc	ldur	d2, [x29, #-0x10]
100002288:	e8 17 40 b9	ldr	w8, [sp, #0x14]
10000228c:	08 05 00 11	add	w8, w8, #0x1
100002290:	00 01 63 1e	ucvtf	d0, w8
100002294:	88 3f 95 d2	mov	x8, #0xa9fc
100002298:	28 5e ba f2	movk	x8, #0xd2f1, lsl #16
10000229c:	a8 49 cc f2	movk	x8, #0x624d, lsl #32
1000022a0:	08 ea e7 f2	movk	x8, #0x3f50, lsl #48
1000022a4:	01 01 67 9e	fmov	d1, x8
1000022a8:	00 08 41 1f	fmadd	d0, d0, d1, d2
1000022ac:	56 00 00 94	bl	0x100002404 ; symbol stub for: _sin
1000022b0:	e0 07 00 fd	str	d0, [sp, #0x8]
1000022b4:	e0 07 40 fd	ldr	d0, [sp, #0x8]
1000022b8:	a1 03 5f fc	ldur	d1, [x29, #-0x10]
1000022bc:	00 28 61 1e	fadd	d0, d0, d1
1000022c0:	54 00 00 94	bl	0x100002410 ; symbol stub for: _cos
1000022c4:	a0 03 1f fc	stur	d0, [x29, #-0x10]
1000022c8:	01 00 00 14	b	0x1000022cc
1000022cc:	e8 17 40 b9	ldr	w8, [sp, #0x14]
1000022d0:	08 05 00 11	add	w8, w8, #0x1
1000022d4:	e8 17 00 b9	str	w8, [sp, #0x14]
1000022d8:	e7 ff ff 17	b	0x100002274
1000022dc:	01 00 00 14	b	0x1000022e0
1000022e0:	e8 0f 40 f9	ldr	x8, [sp, #0x18]
1000022e4:	08 05 00 91	add	x8, x8, #0x1
1000022e8:	e8 0f 00 f9	str	x8, [sp, #0x18]
1000022ec:	db ff ff 17	b	0x100002258
1000022f0:	0b 00 00 94	bl	_apple_re_now_ns
1000022f4:	e0 13 00 f9	str	x0, [sp, #0x20]
1000022f8:	a0 03 5f fc	ldur	d0, [x29, #-0x10]
1000022fc:	28 00 00 d0	adrp	x8, 6 ; 0x100008000
100002300:	00 0d 00 fd	str	d0, [x8, #0x18]
100002304:	e8 13 40 f9	ldr	x8, [sp, #0x20]
100002308:	a9 83 5e f8	ldur	x9, [x29, #-0x18]
10000230c:	00 01 09 eb	subs	x0, x8, x9
100002310:	fd 7b 44 a9	ldp	x29, x30, [sp, #0x40]
100002314:	ff 43 01 91	add	sp, sp, #0x50
100002318:	c0 03 5f d6	ret
_apple_re_now_ns:
10000231c:	ff 83 00 d1	sub	sp, sp, #0x20
100002320:	fd 7b 01 a9	stp	x29, x30, [sp, #0x10]
100002324:	fd 43 00 91	add	x29, sp, #0x10
100002328:	28 00 00 d0	adrp	x8, 6 ; 0x100008000
10000232c:	08 41 00 91	add	x8, x8, #0x10
100002330:	08 05 40 b9	ldr	w8, [x8, #0x4]
100002334:	c8 00 00 35	cbnz	w8, 0x10000234c
100002338:	01 00 00 14	b	0x10000233c
10000233c:	20 00 00 d0	adrp	x0, 6 ; 0x100008000
100002340:	00 40 00 91	add	x0, x0, #0x10
100002344:	36 00 00 94	bl	0x10000241c ; symbol stub for: _mach_timebase_info
100002348:	01 00 00 14	b	0x10000234c
10000234c:	37 00 00 94	bl	0x100002428 ; symbol stub for: _mach_absolute_time
100002350:	e0 07 00 f9	str	x0, [sp, #0x8]
100002354:	e8 07 40 f9	ldr	x8, [sp, #0x8]
100002358:	2a 00 00 d0	adrp	x10, 6 ; 0x100008000
10000235c:	29 00 00 d0	adrp	x9, 6 ; 0x100008000
100002360:	29 41 00 91	add	x9, x9, #0x10
100002364:	4a 11 40 b9	ldr	w10, [x10, #0x10]
100002368:	08 7d 0a 9b	mul	x8, x8, x10
10000236c:	29 05 40 b9	ldr	w9, [x9, #0x4]
100002370:	00 09 c9 9a	udiv	x0, x8, x9
100002374:	fd 7b 41 a9	ldp	x29, x30, [sp, #0x10]
100002378:	ff 83 00 91	add	sp, sp, #0x20
10000237c:	c0 03 5f d6	ret
_quantize_bfloat16_proxy:
100002380:	ff 43 00 d1	sub	sp, sp, #0x10
100002384:	e0 0f 00 bd	str	s0, [sp, #0xc]
100002388:	e0 0f 40 bd	ldr	s0, [sp, #0xc]
10000238c:	e0 0b 00 bd	str	s0, [sp, #0x8]
100002390:	e8 0b 40 b9	ldr	w8, [sp, #0x8]
100002394:	08 21 40 11	add	w8, w8, #0x8, lsl #12
100002398:	e8 0b 00 b9	str	w8, [sp, #0x8]
10000239c:	e8 0b 40 b9	ldr	w8, [sp, #0x8]
1000023a0:	08 3d 10 12	and	w8, w8, #0xffff0000
1000023a4:	e8 0b 00 b9	str	w8, [sp, #0x8]
1000023a8:	e8 0b 40 b9	ldr	w8, [sp, #0x8]
1000023ac:	e8 0f 00 b9	str	w8, [sp, #0xc]
1000023b0:	e0 0f 40 bd	ldr	s0, [sp, #0xc]
1000023b4:	ff 43 00 91	add	sp, sp, #0x10
1000023b8:	c0 03 5f d6	ret
