/Users/eirikr/Documents/GitHub/steinmarder/src/apple_re/results/tranche1_raw_20260330_m1_cuda_grade_r2/cpu_bins/sm_apple_cpu_latency_O3:
(__TEXT,__text) section
_main:
1000004f8:	ff 83 02 d1	sub	sp, sp, #0xa0
1000004fc:	e9 23 03 6d	stp	d9, d8, [sp, #0x30]
100000500:	fc 6f 04 a9	stp	x28, x27, [sp, #0x40]
100000504:	fa 67 05 a9	stp	x26, x25, [sp, #0x50]
100000508:	f8 5f 06 a9	stp	x24, x23, [sp, #0x60]
10000050c:	f6 57 07 a9	stp	x22, x21, [sp, #0x70]
100000510:	f4 4f 08 a9	stp	x20, x19, [sp, #0x80]
100000514:	fd 7b 09 a9	stp	x29, x30, [sp, #0x90]
100000518:	fd 43 02 91	add	x29, sp, #0x90
10000051c:	13 48 88 52	mov	w19, #0x4240
100000520:	f3 01 a0 72	movk	w19, #0xf, lsl #16
100000524:	1f 08 00 71	cmp	w0, #0x2
100000528:	ab 05 00 54	b.lt	0x1000005dc
10000052c:	f4 03 01 aa	mov	x20, x1
100000530:	f5 03 00 aa	mov	x21, x0
100000534:	19 00 80 52	mov	w25, #0x0
100000538:	3a 00 80 52	mov	w26, #0x1
10000053c:	16 00 00 90	adrp	x22, 0 ; 0x100000000
100000540:	d6 92 2d 91	add	x22, x22, #0xb64 ; literal pool for: "--iters"
100000544:	17 00 00 90	adrp	x23, 0 ; 0x100000000
100000548:	f7 b2 2d 91	add	x23, x23, #0xb6c ; literal pool for: "--csv"
10000054c:	09 00 00 14	b	0x100000570
100000550:	80 7a 7b f8	ldr	x0, [x20, x27, lsl #3]
100000554:	01 00 80 d2	mov	x1, #0x0
100000558:	42 01 80 52	mov	w2, #0xa
10000055c:	7f 01 00 94	bl	0x100000b58 ; symbol stub for: _strtoull
100000560:	f3 03 00 aa	mov	x19, x0
100000564:	7a 07 00 11	add	w26, w27, #0x1
100000568:	5f 03 15 6b	cmp	w26, w21
10000056c:	6a 02 00 54	b.ge	0x1000005b8
100000570:	5b 7f 40 93	sxtw	x27, w26
100000574:	98 da 7a f8	ldr	x24, [x20, w26, sxtw #3]
100000578:	e0 03 18 aa	mov	x0, x24
10000057c:	e1 03 16 aa	mov	x1, x22
100000580:	73 01 00 94	bl	0x100000b4c ; symbol stub for: _strcmp
100000584:	1f 00 00 71	cmp	w0, #0x0
100000588:	7b 07 00 91	add	x27, x27, #0x1
10000058c:	60 03 55 7a	ccmp	w27, w21, #0x0, eq
100000590:	0b fe ff 54	b.lt	0x100000550
100000594:	e0 03 18 aa	mov	x0, x24
100000598:	e1 03 17 aa	mov	x1, x23
10000059c:	6c 01 00 94	bl	0x100000b4c ; symbol stub for: _strcmp
1000005a0:	20 29 00 35	cbnz	w0, 0x100000ac4
1000005a4:	39 00 80 52	mov	w25, #0x1
1000005a8:	fb 03 1a aa	mov	x27, x26
1000005ac:	7a 07 00 11	add	w26, w27, #0x1
1000005b0:	5f 03 15 6b	cmp	w26, w21
1000005b4:	eb fd ff 54	b.lt	0x100000570
1000005b8:	39 01 00 36	tbz	w25, #0x0, 0x1000005dc
1000005bc:	00 00 00 90	adrp	x0, 0 ; 0x100000000
1000005c0:	00 8c 30 91	add	x0, x0, #0xc23 ; literal pool for: "probe,iters,unroll,elapsed_ns,ns_per_op,approx_gops"
1000005c4:	5f 01 00 94	bl	0x100000b40 ; symbol stub for: _puts
1000005c8:	35 00 80 52	mov	w21, #0x1
1000005cc:	57 00 00 90	adrp	x23, 8 ; 0x100008000
1000005d0:	e8 0e 40 b9	ldr	w8, [x23, #0xc]
1000005d4:	28 01 00 35	cbnz	w8, 0x1000005f8
1000005d8:	05 00 00 14	b	0x1000005ec
1000005dc:	15 00 80 52	mov	w21, #0x0
1000005e0:	57 00 00 90	adrp	x23, 8 ; 0x100008000
1000005e4:	e8 0e 40 b9	ldr	w8, [x23, #0xc]
1000005e8:	88 00 00 35	cbnz	w8, 0x1000005f8
1000005ec:	40 00 00 90	adrp	x0, 8 ; 0x100008000
1000005f0:	00 20 00 91	add	x0, x0, #0x8
1000005f4:	4d 01 00 94	bl	0x100000b28 ; symbol stub for: _mach_timebase_info
1000005f8:	49 01 00 94	bl	0x100000b1c ; symbol stub for: _mach_absolute_time
1000005fc:	f4 03 00 aa	mov	x20, x0
100000600:	56 00 00 90	adrp	x22, 8 ; 0x100008000
100000604:	d6 22 00 91	add	x22, x22, #0x8
100000608:	d9 6a 40 29	ldp	w25, w26, [x22]
10000060c:	38 00 80 52	mov	w24, #0x1
100000610:	53 25 00 b4	cbz	x19, 0x100000ab8
100000614:	e8 03 13 aa	mov	x8, x19
100000618:	18 07 00 91	add	x24, x24, #0x1
10000061c:	18 07 00 91	add	x24, x24, #0x1
100000620:	18 07 00 91	add	x24, x24, #0x1
100000624:	18 07 00 91	add	x24, x24, #0x1
100000628:	18 07 00 91	add	x24, x24, #0x1
10000062c:	18 07 00 91	add	x24, x24, #0x1
100000630:	18 07 00 91	add	x24, x24, #0x1
100000634:	18 07 00 91	add	x24, x24, #0x1
100000638:	18 07 00 91	add	x24, x24, #0x1
10000063c:	18 07 00 91	add	x24, x24, #0x1
100000640:	18 07 00 91	add	x24, x24, #0x1
100000644:	18 07 00 91	add	x24, x24, #0x1
100000648:	18 07 00 91	add	x24, x24, #0x1
10000064c:	18 07 00 91	add	x24, x24, #0x1
100000650:	18 07 00 91	add	x24, x24, #0x1
100000654:	18 07 00 91	add	x24, x24, #0x1
100000658:	18 07 00 91	add	x24, x24, #0x1
10000065c:	18 07 00 91	add	x24, x24, #0x1
100000660:	18 07 00 91	add	x24, x24, #0x1
100000664:	18 07 00 91	add	x24, x24, #0x1
100000668:	18 07 00 91	add	x24, x24, #0x1
10000066c:	18 07 00 91	add	x24, x24, #0x1
100000670:	18 07 00 91	add	x24, x24, #0x1
100000674:	18 07 00 91	add	x24, x24, #0x1
100000678:	18 07 00 91	add	x24, x24, #0x1
10000067c:	18 07 00 91	add	x24, x24, #0x1
100000680:	18 07 00 91	add	x24, x24, #0x1
100000684:	18 07 00 91	add	x24, x24, #0x1
100000688:	18 07 00 91	add	x24, x24, #0x1
10000068c:	18 07 00 91	add	x24, x24, #0x1
100000690:	18 07 00 91	add	x24, x24, #0x1
100000694:	18 07 00 91	add	x24, x24, #0x1
100000698:	08 05 00 f1	subs	x8, x8, #0x1
10000069c:	e1 fb ff 54	b.ne	0x100000618
1000006a0:	e8 0e 40 b9	ldr	w8, [x23, #0xc]
1000006a4:	88 00 00 35	cbnz	w8, 0x1000006b4
1000006a8:	40 00 00 90	adrp	x0, 8 ; 0x100008000
1000006ac:	00 20 00 91	add	x0, x0, #0x8
1000006b0:	1e 01 00 94	bl	0x100000b28 ; symbol stub for: _mach_timebase_info
1000006b4:	88 7e 19 9b	mul	x8, x20, x25
1000006b8:	14 09 da 9a	udiv	x20, x8, x26
1000006bc:	18 01 00 94	bl	0x100000b1c ; symbol stub for: _mach_absolute_time
1000006c0:	48 00 00 90	adrp	x8, 8 ; 0x100008000
1000006c4:	08 01 00 91	add	x8, x8, #0x0
1000006c8:	09 29 41 29	ldp	w9, w10, [x8, #0x8]
1000006cc:	09 7c 09 9b	mul	x9, x0, x9
1000006d0:	29 09 ca 9a	udiv	x9, x9, x10
1000006d4:	18 01 00 f9	str	x24, [x8]
1000006d8:	28 01 14 cb	sub	x8, x9, x20
1000006dc:	60 02 63 9e	ucvtf	d0, x19
1000006e0:	0a 08 e8 d2	mov	x10, #0x4040000000000000
1000006e4:	41 01 67 9e	fmov	d1, x10
1000006e8:	08 08 61 1e	fmul	d8, d0, d1
1000006ec:	01 e4 00 2f	movi	d1, #0000000000000000
1000006f0:	08 21 60 1e	fcmp	d8, #0.0
1000006f4:	00 e4 00 2f	movi	d0, #0000000000000000
1000006f8:	8d 03 00 54	b.le	0x100000768
1000006fc:	00 01 63 9e	ucvtf	d0, x8
100000700:	00 18 68 1e	fdiv	d0, d0, d8
100000704:	3f 01 14 eb	cmp	x9, x20
100000708:	40 03 00 54	b.eq	0x100000770
10000070c:	01 01 63 9e	ucvtf	d1, x8
100000710:	01 19 61 1e	fdiv	d1, d8, d1
100000714:	15 03 00 35	cbnz	w21, 0x100000774
100000718:	09 00 00 90	adrp	x9, 0 ; 0x100000000
10000071c:	29 b9 2e 91	add	x9, x9, #0xbae ; literal pool for: "add_dep_u64"
100000720:	e0 07 01 6d	stp	d0, d1, [sp, #0x10]
100000724:	e9 23 00 a9	stp	x9, x8, [sp]
100000728:	00 00 00 90	adrp	x0, 0 ; 0x100000000
10000072c:	00 c0 2f 91	add	x0, x0, #0xbf0 ; literal pool for: "%-16s elapsed_ns=%llu ns/op=%.6f approx_Gops=%.6f\n"
100000730:	01 01 00 94	bl	0x100000b34 ; symbol stub for: _printf
100000734:	e8 0e 40 b9	ldr	w8, [x23, #0xc]
100000738:	48 03 00 35	cbnz	w8, 0x1000007a0
10000073c:	40 00 00 90	adrp	x0, 8 ; 0x100008000
100000740:	00 20 00 91	add	x0, x0, #0x8
100000744:	f9 00 00 94	bl	0x100000b28 ; symbol stub for: _mach_timebase_info
100000748:	f5 00 00 94	bl	0x100000b1c ; symbol stub for: _mach_absolute_time
10000074c:	f4 03 00 aa	mov	x20, x0
100000750:	d8 66 40 29	ldp	w24, w25, [x22]
100000754:	f3 02 00 b5	cbnz	x19, 0x1000007b0
100000758:	09 10 6e 1e	fmov	d9, #1.00000000
10000075c:	e8 03 19 aa	mov	x8, x25
100000760:	c8 07 00 35	cbnz	w8, 0x100000858
100000764:	3a 00 00 14	b	0x10000084c
100000768:	3f 01 14 eb	cmp	x9, x20
10000076c:	01 fd ff 54	b.ne	0x10000070c
100000770:	55 fd ff 34	cbz	w21, 0x100000718
100000774:	e0 07 02 6d	stp	d0, d1, [sp, #0x20]
100000778:	09 04 80 52	mov	w9, #0x20
10000077c:	0a 00 00 90	adrp	x10, 0 ; 0x100000000
100000780:	4a b9 2e 91	add	x10, x10, #0xbae ; literal pool for: "add_dep_u64"
100000784:	e9 23 01 a9	stp	x9, x8, [sp, #0x10]
100000788:	ea 4f 00 a9	stp	x10, x19, [sp]
10000078c:	00 00 00 90	adrp	x0, 0 ; 0x100000000
100000790:	00 54 2f 91	add	x0, x0, #0xbd5 ; literal pool for: "%s,%llu,%d,%llu,%.6f,%.6f\n"
100000794:	e8 00 00 94	bl	0x100000b34 ; symbol stub for: _printf
100000798:	e8 0e 40 b9	ldr	w8, [x23, #0xc]
10000079c:	08 fd ff 34	cbz	w8, 0x10000073c
1000007a0:	df 00 00 94	bl	0x100000b1c ; symbol stub for: _mach_absolute_time
1000007a4:	f4 03 00 aa	mov	x20, x0
1000007a8:	d8 66 40 29	ldp	w24, w25, [x22]
1000007ac:	73 fd ff b4	cbz	x19, 0x100000758
1000007b0:	00 10 6e 1e	fmov	d0, #1.00000000
1000007b4:	e8 03 13 aa	mov	x8, x19
1000007b8:	09 10 6e 1e	fmov	d9, #1.00000000
1000007bc:	29 29 60 1e	fadd	d9, d9, d0
1000007c0:	29 29 60 1e	fadd	d9, d9, d0
1000007c4:	29 29 60 1e	fadd	d9, d9, d0
1000007c8:	29 29 60 1e	fadd	d9, d9, d0
1000007cc:	29 29 60 1e	fadd	d9, d9, d0
1000007d0:	29 29 60 1e	fadd	d9, d9, d0
1000007d4:	29 29 60 1e	fadd	d9, d9, d0
1000007d8:	29 29 60 1e	fadd	d9, d9, d0
1000007dc:	29 29 60 1e	fadd	d9, d9, d0
1000007e0:	29 29 60 1e	fadd	d9, d9, d0
1000007e4:	29 29 60 1e	fadd	d9, d9, d0
1000007e8:	29 29 60 1e	fadd	d9, d9, d0
1000007ec:	29 29 60 1e	fadd	d9, d9, d0
1000007f0:	29 29 60 1e	fadd	d9, d9, d0
1000007f4:	29 29 60 1e	fadd	d9, d9, d0
1000007f8:	29 29 60 1e	fadd	d9, d9, d0
1000007fc:	29 29 60 1e	fadd	d9, d9, d0
100000800:	29 29 60 1e	fadd	d9, d9, d0
100000804:	29 29 60 1e	fadd	d9, d9, d0
100000808:	29 29 60 1e	fadd	d9, d9, d0
10000080c:	29 29 60 1e	fadd	d9, d9, d0
100000810:	29 29 60 1e	fadd	d9, d9, d0
100000814:	29 29 60 1e	fadd	d9, d9, d0
100000818:	29 29 60 1e	fadd	d9, d9, d0
10000081c:	29 29 60 1e	fadd	d9, d9, d0
100000820:	29 29 60 1e	fadd	d9, d9, d0
100000824:	29 29 60 1e	fadd	d9, d9, d0
100000828:	29 29 60 1e	fadd	d9, d9, d0
10000082c:	29 29 60 1e	fadd	d9, d9, d0
100000830:	29 29 60 1e	fadd	d9, d9, d0
100000834:	29 29 60 1e	fadd	d9, d9, d0
100000838:	29 29 60 1e	fadd	d9, d9, d0
10000083c:	08 05 00 f1	subs	x8, x8, #0x1
100000840:	e1 fb ff 54	b.ne	0x1000007bc
100000844:	e8 0e 40 b9	ldr	w8, [x23, #0xc]
100000848:	88 00 00 35	cbnz	w8, 0x100000858
10000084c:	40 00 00 90	adrp	x0, 8 ; 0x100008000
100000850:	00 20 00 91	add	x0, x0, #0x8
100000854:	b5 00 00 94	bl	0x100000b28 ; symbol stub for: _mach_timebase_info
100000858:	88 7e 18 9b	mul	x8, x20, x24
10000085c:	14 09 d9 9a	udiv	x20, x8, x25
100000860:	af 00 00 94	bl	0x100000b1c ; symbol stub for: _mach_absolute_time
100000864:	c8 26 40 29	ldp	w8, w9, [x22]
100000868:	08 7c 08 9b	mul	x8, x0, x8
10000086c:	09 09 c9 9a	udiv	x9, x8, x9
100000870:	c9 06 00 fd	str	d9, [x22, #0x8]
100000874:	28 01 14 cb	sub	x8, x9, x20
100000878:	01 e4 00 2f	movi	d1, #0000000000000000
10000087c:	08 21 60 1e	fcmp	d8, #0.0
100000880:	00 e4 00 2f	movi	d0, #0000000000000000
100000884:	8d 03 00 54	b.le	0x1000008f4
100000888:	00 01 63 9e	ucvtf	d0, x8
10000088c:	00 18 68 1e	fdiv	d0, d0, d8
100000890:	3f 01 14 eb	cmp	x9, x20
100000894:	40 03 00 54	b.eq	0x1000008fc
100000898:	01 01 63 9e	ucvtf	d1, x8
10000089c:	01 19 61 1e	fdiv	d1, d8, d1
1000008a0:	15 03 00 35	cbnz	w21, 0x100000900
1000008a4:	09 00 00 90	adrp	x9, 0 ; 0x100000000
1000008a8:	29 e9 2e 91	add	x9, x9, #0xbba ; literal pool for: "fadd_dep_f64"
1000008ac:	e0 07 01 6d	stp	d0, d1, [sp, #0x10]
1000008b0:	e9 23 00 a9	stp	x9, x8, [sp]
1000008b4:	00 00 00 90	adrp	x0, 0 ; 0x100000000
1000008b8:	00 c0 2f 91	add	x0, x0, #0xbf0 ; literal pool for: "%-16s elapsed_ns=%llu ns/op=%.6f approx_Gops=%.6f\n"
1000008bc:	9e 00 00 94	bl	0x100000b34 ; symbol stub for: _printf
1000008c0:	e8 0e 40 b9	ldr	w8, [x23, #0xc]
1000008c4:	48 03 00 35	cbnz	w8, 0x10000092c
1000008c8:	40 00 00 90	adrp	x0, 8 ; 0x100008000
1000008cc:	00 20 00 91	add	x0, x0, #0x8
1000008d0:	96 00 00 94	bl	0x100000b28 ; symbol stub for: _mach_timebase_info
1000008d4:	92 00 00 94	bl	0x100000b1c ; symbol stub for: _mach_absolute_time
1000008d8:	f4 03 00 aa	mov	x20, x0
1000008dc:	d8 66 40 29	ldp	w24, w25, [x22]
1000008e0:	09 10 6e 1e	fmov	d9, #1.00000000
1000008e4:	f3 02 00 b5	cbnz	x19, 0x100000940
1000008e8:	e8 03 19 aa	mov	x8, x25
1000008ec:	68 08 00 35	cbnz	w8, 0x1000009f8
1000008f0:	3f 00 00 14	b	0x1000009ec
1000008f4:	3f 01 14 eb	cmp	x9, x20
1000008f8:	01 fd ff 54	b.ne	0x100000898
1000008fc:	55 fd ff 34	cbz	w21, 0x1000008a4
100000900:	e0 07 02 6d	stp	d0, d1, [sp, #0x20]
100000904:	09 04 80 52	mov	w9, #0x20
100000908:	0a 00 00 90	adrp	x10, 0 ; 0x100000000
10000090c:	4a e9 2e 91	add	x10, x10, #0xbba ; literal pool for: "fadd_dep_f64"
100000910:	e9 23 01 a9	stp	x9, x8, [sp, #0x10]
100000914:	ea 4f 00 a9	stp	x10, x19, [sp]
100000918:	00 00 00 90	adrp	x0, 0 ; 0x100000000
10000091c:	00 54 2f 91	add	x0, x0, #0xbd5 ; literal pool for: "%s,%llu,%d,%llu,%.6f,%.6f\n"
100000920:	85 00 00 94	bl	0x100000b34 ; symbol stub for: _printf
100000924:	e8 0e 40 b9	ldr	w8, [x23, #0xc]
100000928:	08 fd ff 34	cbz	w8, 0x1000008c8
10000092c:	7c 00 00 94	bl	0x100000b1c ; symbol stub for: _mach_absolute_time
100000930:	f4 03 00 aa	mov	x20, x0
100000934:	d8 66 40 29	ldp	w24, w25, [x22]
100000938:	09 10 6e 1e	fmov	d9, #1.00000000
10000093c:	73 fd ff b4	cbz	x19, 0x1000008e8
100000940:	08 00 a4 d2	mov	x8, #0x20000000
100000944:	08 fe e7 f2	movk	x8, #0x3ff0, lsl #48
100000948:	00 01 67 9e	fmov	d0, x8
10000094c:	e8 4b 63 b2	mov	x8, #0xffffe0000000
100000950:	e8 fd e7 f2	movk	x8, #0x3fef, lsl #48
100000954:	01 01 67 9e	fmov	d1, x8
100000958:	e8 03 13 aa	mov	x8, x19
10000095c:	29 05 40 1f	fmadd	d9, d9, d0, d1
100000960:	29 05 40 1f	fmadd	d9, d9, d0, d1
100000964:	29 05 40 1f	fmadd	d9, d9, d0, d1
100000968:	29 05 40 1f	fmadd	d9, d9, d0, d1
10000096c:	29 05 40 1f	fmadd	d9, d9, d0, d1
100000970:	29 05 40 1f	fmadd	d9, d9, d0, d1
100000974:	29 05 40 1f	fmadd	d9, d9, d0, d1
100000978:	29 05 40 1f	fmadd	d9, d9, d0, d1
10000097c:	29 05 40 1f	fmadd	d9, d9, d0, d1
100000980:	29 05 40 1f	fmadd	d9, d9, d0, d1
100000984:	29 05 40 1f	fmadd	d9, d9, d0, d1
100000988:	29 05 40 1f	fmadd	d9, d9, d0, d1
10000098c:	29 05 40 1f	fmadd	d9, d9, d0, d1
100000990:	29 05 40 1f	fmadd	d9, d9, d0, d1
100000994:	29 05 40 1f	fmadd	d9, d9, d0, d1
100000998:	29 05 40 1f	fmadd	d9, d9, d0, d1
10000099c:	29 05 40 1f	fmadd	d9, d9, d0, d1
1000009a0:	29 05 40 1f	fmadd	d9, d9, d0, d1
1000009a4:	29 05 40 1f	fmadd	d9, d9, d0, d1
1000009a8:	29 05 40 1f	fmadd	d9, d9, d0, d1
1000009ac:	29 05 40 1f	fmadd	d9, d9, d0, d1
1000009b0:	29 05 40 1f	fmadd	d9, d9, d0, d1
1000009b4:	29 05 40 1f	fmadd	d9, d9, d0, d1
1000009b8:	29 05 40 1f	fmadd	d9, d9, d0, d1
1000009bc:	29 05 40 1f	fmadd	d9, d9, d0, d1
1000009c0:	29 05 40 1f	fmadd	d9, d9, d0, d1
1000009c4:	29 05 40 1f	fmadd	d9, d9, d0, d1
1000009c8:	29 05 40 1f	fmadd	d9, d9, d0, d1
1000009cc:	29 05 40 1f	fmadd	d9, d9, d0, d1
1000009d0:	29 05 40 1f	fmadd	d9, d9, d0, d1
1000009d4:	29 05 40 1f	fmadd	d9, d9, d0, d1
1000009d8:	29 05 40 1f	fmadd	d9, d9, d0, d1
1000009dc:	08 05 00 f1	subs	x8, x8, #0x1
1000009e0:	e1 fb ff 54	b.ne	0x10000095c
1000009e4:	e8 0e 40 b9	ldr	w8, [x23, #0xc]
1000009e8:	88 00 00 35	cbnz	w8, 0x1000009f8
1000009ec:	40 00 00 90	adrp	x0, 8 ; 0x100008000
1000009f0:	00 20 00 91	add	x0, x0, #0x8
1000009f4:	4d 00 00 94	bl	0x100000b28 ; symbol stub for: _mach_timebase_info
1000009f8:	88 7e 18 9b	mul	x8, x20, x24
1000009fc:	14 09 d9 9a	udiv	x20, x8, x25
100000a00:	47 00 00 94	bl	0x100000b1c ; symbol stub for: _mach_absolute_time
100000a04:	c8 26 40 29	ldp	w8, w9, [x22]
100000a08:	08 7c 08 9b	mul	x8, x0, x8
100000a0c:	09 09 c9 9a	udiv	x9, x8, x9
100000a10:	c9 06 00 fd	str	d9, [x22, #0x8]
100000a14:	28 01 14 cb	sub	x8, x9, x20
100000a18:	01 e4 00 2f	movi	d1, #0000000000000000
100000a1c:	08 21 60 1e	fcmp	d8, #0.0
100000a20:	00 e4 00 2f	movi	d0, #0000000000000000
100000a24:	ed 01 00 54	b.le	0x100000a60
100000a28:	00 01 63 9e	ucvtf	d0, x8
100000a2c:	00 18 68 1e	fdiv	d0, d0, d8
100000a30:	3f 01 14 eb	cmp	x9, x20
100000a34:	a0 01 00 54	b.eq	0x100000a68
100000a38:	01 01 63 9e	ucvtf	d1, x8
100000a3c:	01 19 61 1e	fdiv	d1, d8, d1
100000a40:	75 01 00 35	cbnz	w21, 0x100000a6c
100000a44:	09 00 00 90	adrp	x9, 0 ; 0x100000000
100000a48:	29 1d 2f 91	add	x9, x9, #0xbc7 ; literal pool for: "fmadd_dep_f64"
100000a4c:	e0 07 01 6d	stp	d0, d1, [sp, #0x10]
100000a50:	e9 23 00 a9	stp	x9, x8, [sp]
100000a54:	00 00 00 90	adrp	x0, 0 ; 0x100000000
100000a58:	00 c0 2f 91	add	x0, x0, #0xbf0 ; literal pool for: "%-16s elapsed_ns=%llu ns/op=%.6f approx_Gops=%.6f\n"
100000a5c:	0c 00 00 14	b	0x100000a8c
100000a60:	3f 01 14 eb	cmp	x9, x20
100000a64:	a1 fe ff 54	b.ne	0x100000a38
100000a68:	f5 fe ff 34	cbz	w21, 0x100000a44
100000a6c:	e0 07 02 6d	stp	d0, d1, [sp, #0x20]
100000a70:	09 04 80 52	mov	w9, #0x20
100000a74:	0a 00 00 90	adrp	x10, 0 ; 0x100000000
100000a78:	4a 1d 2f 91	add	x10, x10, #0xbc7 ; literal pool for: "fmadd_dep_f64"
100000a7c:	e9 23 01 a9	stp	x9, x8, [sp, #0x10]
100000a80:	ea 4f 00 a9	stp	x10, x19, [sp]
100000a84:	00 00 00 90	adrp	x0, 0 ; 0x100000000
100000a88:	00 54 2f 91	add	x0, x0, #0xbd5 ; literal pool for: "%s,%llu,%d,%llu,%.6f,%.6f\n"
100000a8c:	2a 00 00 94	bl	0x100000b34 ; symbol stub for: _printf
100000a90:	00 00 80 52	mov	w0, #0x0
100000a94:	fd 7b 49 a9	ldp	x29, x30, [sp, #0x90]
100000a98:	f4 4f 48 a9	ldp	x20, x19, [sp, #0x80]
100000a9c:	f6 57 47 a9	ldp	x22, x21, [sp, #0x70]
100000aa0:	f8 5f 46 a9	ldp	x24, x23, [sp, #0x60]
100000aa4:	fa 67 45 a9	ldp	x26, x25, [sp, #0x50]
100000aa8:	fc 6f 44 a9	ldp	x28, x27, [sp, #0x40]
100000aac:	e9 23 43 6d	ldp	d9, d8, [sp, #0x30]
100000ab0:	ff 83 02 91	add	sp, sp, #0xa0
100000ab4:	c0 03 5f d6	ret
100000ab8:	e8 03 1a aa	mov	x8, x26
100000abc:	c8 df ff 35	cbnz	w8, 0x1000006b4
100000ac0:	fa fe ff 17	b	0x1000006a8
100000ac4:	01 00 00 90	adrp	x1, 0 ; 0x100000000
100000ac8:	21 c8 2d 91	add	x1, x1, #0xb72 ; literal pool for: "--help"
100000acc:	e0 03 18 aa	mov	x0, x24
100000ad0:	1f 00 00 94	bl	0x100000b4c ; symbol stub for: _strcmp
100000ad4:	40 01 00 34	cbz	w0, 0x100000afc
100000ad8:	28 00 00 90	adrp	x8, 4 ; 0x100004000
100000adc:	08 01 40 f9	ldr	x8, [x8] ; literal pool symbol address: ___stderrp
100000ae0:	00 01 40 f9	ldr	x0, [x8]
100000ae4:	f8 03 00 f9	str	x24, [sp]
100000ae8:	01 00 00 90	adrp	x1, 0 ; 0x100000000
100000aec:	21 60 2e 91	add	x1, x1, #0xb98 ; literal pool for: "unknown argument: %s\n"
100000af0:	08 00 00 94	bl	0x100000b10 ; symbol stub for: _fprintf
100000af4:	20 00 80 52	mov	w0, #0x1
100000af8:	e7 ff ff 17	b	0x100000a94
100000afc:	88 02 40 f9	ldr	x8, [x20]
100000b00:	e8 03 00 f9	str	x8, [sp]
100000b04:	00 00 00 90	adrp	x0, 0 ; 0x100000000
100000b08:	00 e4 2d 91	add	x0, x0, #0xb79 ; literal pool for: "usage: %s [--iters N] [--csv]\n"
100000b0c:	e0 ff ff 17	b	0x100000a8c
